
WeatherStation.elf:     file format elf32-avr

Sections:
Idx Name          Size      VMA       LMA       File off  Algn
  0 .text         00001cd0  00000000  00000000  00000094  2**1
                  CONTENTS, ALLOC, LOAD, READONLY, CODE
  1 .data         0000001c  00800060  00001cd0  00001d64  2**0
                  CONTENTS, ALLOC, LOAD, DATA
  2 .bss          00000142  0080007c  0080007c  00001d80  2**0
                  ALLOC
  3 .comment      00000030  00000000  00000000  00001d80  2**0
                  CONTENTS, READONLY
  4 .note.gnu.avr.deviceinfo 0000003c  00000000  00000000  00001db0  2**2
                  CONTENTS, READONLY
  5 .debug_aranges 000002f0  00000000  00000000  00001dec  2**0
                  CONTENTS, READONLY, DEBUGGING
  6 .debug_info   000034c8  00000000  00000000  000020dc  2**0
                  CONTENTS, READONLY, DEBUGGING
  7 .debug_abbrev 00000ed7  00000000  00000000  000055a4  2**0
                  CONTENTS, READONLY, DEBUGGING
  8 .debug_line   000010c5  00000000  00000000  0000647b  2**0
                  CONTENTS, READONLY, DEBUGGING
  9 .debug_frame  00000858  00000000  00000000  00007540  2**2
                  CONTENTS, READONLY, DEBUGGING
 10 .debug_str    00000793  00000000  00000000  00007d98  2**0
                  CONTENTS, READONLY, DEBUGGING
 11 .debug_loc    0000362b  00000000  00000000  0000852b  2**0
                  CONTENTS, READONLY, DEBUGGING
 12 .debug_ranges 000002a0  00000000  00000000  0000bb56  2**0
                  CONTENTS, READONLY, DEBUGGING

Disassembly of section .text:

00000000 <__vectors>:
       0:	0c 94 32 00 	jmp	0x64	; 0x64 <__ctors_end>
       4:	0c 94 4f 00 	jmp	0x9e	; 0x9e <__bad_interrupt>
       8:	0c 94 4f 00 	jmp	0x9e	; 0x9e <__bad_interrupt>
       c:	0c 94 4f 00 	jmp	0x9e	; 0x9e <__bad_interrupt>
      10:	0c 94 4f 00 	jmp	0x9e	; 0x9e <__bad_interrupt>
      14:	0c 94 4f 00 	jmp	0x9e	; 0x9e <__bad_interrupt>
      18:	0c 94 4f 00 	jmp	0x9e	; 0x9e <__bad_interrupt>
      1c:	0c 94 4f 00 	jmp	0x9e	; 0x9e <__bad_interrupt>
      20:	0c 94 4f 00 	jmp	0x9e	; 0x9e <__bad_interrupt>
      24:	0c 94 4f 00 	jmp	0x9e	; 0x9e <__bad_interrupt>
      28:	0c 94 17 07 	jmp	0xe2e	; 0xe2e <__vector_10>
      2c:	0c 94 4f 00 	jmp	0x9e	; 0x9e <__bad_interrupt>
      30:	0c 94 4f 00 	jmp	0x9e	; 0x9e <__bad_interrupt>
      34:	0c 94 4f 00 	jmp	0x9e	; 0x9e <__bad_interrupt>
      38:	0c 94 4f 00 	jmp	0x9e	; 0x9e <__bad_interrupt>
      3c:	0c 94 4f 00 	jmp	0x9e	; 0x9e <__bad_interrupt>
      40:	0c 94 4f 00 	jmp	0x9e	; 0x9e <__bad_interrupt>
      44:	0c 94 4f 00 	jmp	0x9e	; 0x9e <__bad_interrupt>
      48:	0c 94 4f 00 	jmp	0x9e	; 0x9e <__bad_interrupt>
      4c:	0c 94 4f 00 	jmp	0x9e	; 0x9e <__bad_interrupt>
      50:	0c 94 4f 00 	jmp	0x9e	; 0x9e <__bad_interrupt>

00000054 <__trampolines_end>:
      54:	57 65       	ori	r21, 0x57	; 87
      56:	61 74       	andi	r22, 0x41	; 65
      58:	68 65       	ori	r22, 0x58	; 88
      5a:	72 53       	subi	r23, 0x32	; 50
      5c:	74 61       	ori	r23, 0x14	; 20
      5e:	74 69       	ori	r23, 0x94	; 148
      60:	6f 6e       	ori	r22, 0xEF	; 239
	...

00000064 <__ctors_end>:
      64:	11 24       	eor	r1, r1
      66:	1f be       	out	0x3f, r1	; 63
      68:	cf e5       	ldi	r28, 0x5F	; 95
      6a:	d8 e0       	ldi	r29, 0x08	; 8
      6c:	de bf       	out	0x3e, r29	; 62
      6e:	cd bf       	out	0x3d, r28	; 61

00000070 <__do_copy_data>:
      70:	10 e0       	ldi	r17, 0x00	; 0
      72:	a0 e6       	ldi	r26, 0x60	; 96
      74:	b0 e0       	ldi	r27, 0x00	; 0
      76:	e0 ed       	ldi	r30, 0xD0	; 208
      78:	fc e1       	ldi	r31, 0x1C	; 28
      7a:	02 c0       	rjmp	.+4      	; 0x80 <__do_copy_data+0x10>
      7c:	05 90       	lpm	r0, Z+
      7e:	0d 92       	st	X+, r0
      80:	ac 37       	cpi	r26, 0x7C	; 124
      82:	b1 07       	cpc	r27, r17
      84:	d9 f7       	brne	.-10     	; 0x7c <__do_copy_data+0xc>

00000086 <__do_clear_bss>:
      86:	21 e0       	ldi	r18, 0x01	; 1
      88:	ac e7       	ldi	r26, 0x7C	; 124
      8a:	b0 e0       	ldi	r27, 0x00	; 0
      8c:	01 c0       	rjmp	.+2      	; 0x90 <.do_clear_bss_start>

0000008e <.do_clear_bss_loop>:
      8e:	1d 92       	st	X+, r1

00000090 <.do_clear_bss_start>:
      90:	ae 3b       	cpi	r26, 0xBE	; 190
      92:	b2 07       	cpc	r27, r18
      94:	e1 f7       	brne	.-8      	; 0x8e <.do_clear_bss_loop>
      96:	0e 94 7b 0a 	call	0x14f6	; 0x14f6 <main>
      9a:	0c 94 66 0e 	jmp	0x1ccc	; 0x1ccc <_exit>

0000009e <__bad_interrupt>:
      9e:	0c 94 00 00 	jmp	0	; 0x0 <__vectors>

000000a2 <BH1750_init>:
//--------//--------//--------//--------//--------//--------//--------//--------//--------
void BH1750_init (void)
{
	//funkcja inicjalizacji pracy czujnika BH1750
	
	TWI_start();
      a2:	0e 94 a6 05 	call	0xb4c	; 0xb4c <TWI_start>
	TWI_write(BH1750_ADR);
      a6:	86 e4       	ldi	r24, 0x46	; 70
      a8:	0e 94 b2 05 	call	0xb64	; 0xb64 <TWI_write>
	TWI_write(BH1750_POWER_ON);
      ac:	81 e0       	ldi	r24, 0x01	; 1
      ae:	0e 94 b2 05 	call	0xb64	; 0xb64 <TWI_write>
	TWI_write(BH1750_RESET);
      b2:	87 e0       	ldi	r24, 0x07	; 7
      b4:	0e 94 b2 05 	call	0xb64	; 0xb64 <TWI_write>
	TWI_stop();
      b8:	0e 94 ac 05 	call	0xb58	; 0xb58 <TWI_stop>
      bc:	08 95       	ret

000000be <BH1750_read>:
}


//--------//--------//--------//--------//--------//--------//--------//--------//--------
void BH1750_read(uint8_t Adress, uint8_t Mode, uint8_t Length, uint8_t *buf)
{
      be:	ef 92       	push	r14
      c0:	ff 92       	push	r15
      c2:	0f 93       	push	r16
      c4:	1f 93       	push	r17
      c6:	cf 93       	push	r28
      c8:	df 93       	push	r29
      ca:	d8 2f       	mov	r29, r24
      cc:	16 2f       	mov	r17, r22
      ce:	c4 2f       	mov	r28, r20
      d0:	e2 2e       	mov	r14, r18
      d2:	f3 2e       	mov	r15, r19
	//funkcja odczytu danych z czujnika BH1750
	TWI_start();
      d4:	0e 94 a6 05 	call	0xb4c	; 0xb4c <TWI_start>
	TWI_write(Adress);
      d8:	8d 2f       	mov	r24, r29
      da:	0e 94 b2 05 	call	0xb64	; 0xb64 <TWI_write>
	TWI_write(Mode);
      de:	81 2f       	mov	r24, r17
      e0:	0e 94 b2 05 	call	0xb64	; 0xb64 <TWI_write>
	TWI_start();
      e4:	0e 94 a6 05 	call	0xb4c	; 0xb4c <TWI_start>
	TWI_write(Adress +1);
      e8:	81 e0       	ldi	r24, 0x01	; 1
      ea:	8d 0f       	add	r24, r29
      ec:	0e 94 b2 05 	call	0xb64	; 0xb64 <TWI_write>
	while (Length--) *buf++ = TWI_read( Length ? ACK : NACK );
      f0:	df ef       	ldi	r29, 0xFF	; 255
      f2:	dc 0f       	add	r29, r28
      f4:	cc 23       	and	r28, r28
      f6:	91 f0       	breq	.+36     	; 0x11c <BH1750_read+0x5e>
      f8:	0e 2d       	mov	r16, r14
      fa:	1f 2d       	mov	r17, r15
      fc:	ff 24       	eor	r15, r15
      fe:	f3 94       	inc	r15
     100:	e1 2c       	mov	r14, r1
     102:	cf 2d       	mov	r28, r15
     104:	d1 11       	cpse	r29, r1
     106:	01 c0       	rjmp	.+2      	; 0x10a <BH1750_read+0x4c>
     108:	ce 2d       	mov	r28, r14
     10a:	8c 2f       	mov	r24, r28
     10c:	0e 94 b9 05 	call	0xb72	; 0xb72 <TWI_read>
     110:	f8 01       	movw	r30, r16
     112:	81 93       	st	Z+, r24
     114:	8f 01       	movw	r16, r30
     116:	d1 50       	subi	r29, 0x01	; 1
     118:	c1 11       	cpse	r28, r1
     11a:	f3 cf       	rjmp	.-26     	; 0x102 <BH1750_read+0x44>
	TWI_stop();
     11c:	0e 94 ac 05 	call	0xb58	; 0xb58 <TWI_stop>
     120:	df 91       	pop	r29
     122:	cf 91       	pop	r28
     124:	1f 91       	pop	r17
     126:	0f 91       	pop	r16
     128:	ff 90       	pop	r15
     12a:	ef 90       	pop	r14
     12c:	08 95       	ret

0000012e <BMP180_init>:
long ut, up, t, p, B5;


//--------//--------//--------//--------//--------//--------//--------//--------//--------
void BMP180_init(void) 
{
     12e:	cf 93       	push	r28
     130:	df 93       	push	r29
     132:	cd b7       	in	r28, 0x3d	; 61
     134:	de b7       	in	r29, 0x3e	; 62
     136:	66 97       	sbiw	r28, 0x16	; 22
     138:	0f b6       	in	r0, 0x3f	; 63
     13a:	f8 94       	cli
     13c:	de bf       	out	0x3e, r29	; 62
     13e:	0f be       	out	0x3f, r0	; 63
     140:	cd bf       	out	0x3d, r28	; 61
	uint8_t buf[22];
	
	TWI_read_buf( BMP180_ADDR, 0xAA, 22, buf );
     142:	9e 01       	movw	r18, r28
     144:	2f 5f       	subi	r18, 0xFF	; 255
     146:	3f 4f       	sbci	r19, 0xFF	; 255
     148:	46 e1       	ldi	r20, 0x16	; 22
     14a:	6a ea       	ldi	r22, 0xAA	; 170
     14c:	8e ee       	ldi	r24, 0xEE	; 238
     14e:	0e 94 f0 05 	call	0xbe0	; 0xbe0 <TWI_read_buf>

	AC1 = ((int) buf[0] <<8 | ((int) buf[1]));
     152:	89 81       	ldd	r24, Y+1	; 0x01
     154:	90 e0       	ldi	r25, 0x00	; 0
     156:	98 2f       	mov	r25, r24
     158:	88 27       	eor	r24, r24
     15a:	2a 81       	ldd	r18, Y+2	; 0x02
     15c:	82 2b       	or	r24, r18
     15e:	90 93 9f 00 	sts	0x009F, r25
     162:	80 93 9e 00 	sts	0x009E, r24
	AC2 = ((int) buf[2] <<8 | ((int) buf[3]));
     166:	8b 81       	ldd	r24, Y+3	; 0x03
     168:	90 e0       	ldi	r25, 0x00	; 0
     16a:	98 2f       	mov	r25, r24
     16c:	88 27       	eor	r24, r24
     16e:	2c 81       	ldd	r18, Y+4	; 0x04
     170:	82 2b       	or	r24, r18
     172:	90 93 b1 00 	sts	0x00B1, r25
     176:	80 93 b0 00 	sts	0x00B0, r24
	AC3 = ((int) buf[4] <<8 | ((int) buf[5]));
     17a:	8d 81       	ldd	r24, Y+5	; 0x05
     17c:	90 e0       	ldi	r25, 0x00	; 0
     17e:	98 2f       	mov	r25, r24
     180:	88 27       	eor	r24, r24
     182:	2e 81       	ldd	r18, Y+6	; 0x06
     184:	82 2b       	or	r24, r18
     186:	90 93 b3 00 	sts	0x00B3, r25
     18a:	80 93 b2 00 	sts	0x00B2, r24
	AC4 = ((unsigned int) buf[6] <<8 | ((unsigned int) buf[7]));
     18e:	8f 81       	ldd	r24, Y+7	; 0x07
     190:	90 e0       	ldi	r25, 0x00	; 0
     192:	98 2f       	mov	r25, r24
     194:	88 27       	eor	r24, r24
     196:	28 85       	ldd	r18, Y+8	; 0x08
     198:	82 2b       	or	r24, r18
     19a:	90 93 ad 00 	sts	0x00AD, r25
     19e:	80 93 ac 00 	sts	0x00AC, r24
	AC5 = ((unsigned int) buf[8] <<8 | ((unsigned int) buf[9]));
     1a2:	89 85       	ldd	r24, Y+9	; 0x09
     1a4:	90 e0       	ldi	r25, 0x00	; 0
     1a6:	98 2f       	mov	r25, r24
     1a8:	88 27       	eor	r24, r24
     1aa:	2a 85       	ldd	r18, Y+10	; 0x0a
     1ac:	82 2b       	or	r24, r18
     1ae:	90 93 a7 00 	sts	0x00A7, r25
     1b2:	80 93 a6 00 	sts	0x00A6, r24
	AC6 = ((unsigned int) buf[10] <<8 | ((unsigned int) buf[11]));
     1b6:	8b 85       	ldd	r24, Y+11	; 0x0b
     1b8:	90 e0       	ldi	r25, 0x00	; 0
     1ba:	98 2f       	mov	r25, r24
     1bc:	88 27       	eor	r24, r24
     1be:	2c 85       	ldd	r18, Y+12	; 0x0c
     1c0:	82 2b       	or	r24, r18
     1c2:	90 93 a1 00 	sts	0x00A1, r25
     1c6:	80 93 a0 00 	sts	0x00A0, r24
	B1 = ((int) buf[12] <<8 | ((int) buf[13]));
     1ca:	8d 85       	ldd	r24, Y+13	; 0x0d
     1cc:	90 e0       	ldi	r25, 0x00	; 0
     1ce:	98 2f       	mov	r25, r24
     1d0:	88 27       	eor	r24, r24
     1d2:	2e 85       	ldd	r18, Y+14	; 0x0e
     1d4:	82 2b       	or	r24, r18
     1d6:	90 93 bb 00 	sts	0x00BB, r25
     1da:	80 93 ba 00 	sts	0x00BA, r24
	B2 = ((int) buf[14] <<8 | ((int) buf[15]));
     1de:	8f 85       	ldd	r24, Y+15	; 0x0f
     1e0:	90 e0       	ldi	r25, 0x00	; 0
     1e2:	98 2f       	mov	r25, r24
     1e4:	88 27       	eor	r24, r24
     1e6:	28 89       	ldd	r18, Y+16	; 0x10
     1e8:	82 2b       	or	r24, r18
     1ea:	90 93 b5 00 	sts	0x00B5, r25
     1ee:	80 93 b4 00 	sts	0x00B4, r24
	MB = ((int) buf[16] <<8 | ((int) buf[17]));
     1f2:	89 89       	ldd	r24, Y+17	; 0x11
     1f4:	90 e0       	ldi	r25, 0x00	; 0
     1f6:	98 2f       	mov	r25, r24
     1f8:	88 27       	eor	r24, r24
     1fa:	2a 89       	ldd	r18, Y+18	; 0x12
     1fc:	82 2b       	or	r24, r18
     1fe:	90 93 af 00 	sts	0x00AF, r25
     202:	80 93 ae 00 	sts	0x00AE, r24
	MC = ((int) buf[18] <<8 | ((int) buf[19]));
     206:	8b 89       	ldd	r24, Y+19	; 0x13
     208:	90 e0       	ldi	r25, 0x00	; 0
     20a:	98 2f       	mov	r25, r24
     20c:	88 27       	eor	r24, r24
     20e:	2c 89       	ldd	r18, Y+20	; 0x14
     210:	82 2b       	or	r24, r18
     212:	90 93 bd 00 	sts	0x00BD, r25
     216:	80 93 bc 00 	sts	0x00BC, r24
	MD = ((int) buf[20] <<8 | ((int) buf[21]));
     21a:	8d 89       	ldd	r24, Y+21	; 0x15
     21c:	90 e0       	ldi	r25, 0x00	; 0
     21e:	98 2f       	mov	r25, r24
     220:	88 27       	eor	r24, r24
     222:	2e 89       	ldd	r18, Y+22	; 0x16
     224:	82 2b       	or	r24, r18
     226:	90 93 9d 00 	sts	0x009D, r25
     22a:	80 93 9c 00 	sts	0x009C, r24

}
     22e:	66 96       	adiw	r28, 0x16	; 22
     230:	0f b6       	in	r0, 0x3f	; 63
     232:	f8 94       	cli
     234:	de bf       	out	0x3e, r29	; 62
     236:	0f be       	out	0x3f, r0	; 63
     238:	cd bf       	out	0x3d, r28	; 61
     23a:	df 91       	pop	r29
     23c:	cf 91       	pop	r28
     23e:	08 95       	ret

00000240 <BMP180_getut>:


//--------//--------//--------//--------//--------//--------//--------//--------//--------
void BMP180_getut(void) 
{
     240:	cf 93       	push	r28
     242:	df 93       	push	r29
     244:	00 d0       	rcall	.+0      	; 0x246 <BMP180_getut+0x6>
     246:	1f 92       	push	r1
     248:	cd b7       	in	r28, 0x3d	; 61
     24a:	de b7       	in	r29, 0x3e	; 62
	//odczyt temperatury bez kompensacji
	uint8_t  buf[2], g=0x2E;
     24c:	8e e2       	ldi	r24, 0x2E	; 46
     24e:	8b 83       	std	Y+3, r24	; 0x03
	TWI_write_buf( BMP180_ADDR, 0xF4, 1, &g );
     250:	9e 01       	movw	r18, r28
     252:	2d 5f       	subi	r18, 0xFD	; 253
     254:	3f 4f       	sbci	r19, 0xFF	; 255
     256:	41 e0       	ldi	r20, 0x01	; 1
     258:	64 ef       	ldi	r22, 0xF4	; 244
     25a:	8e ee       	ldi	r24, 0xEE	; 238
     25c:	0e 94 c4 05 	call	0xb88	; 0xb88 <TWI_write_buf>
	#else
		//round up by default
		__ticks_dc = (uint32_t)(ceil(fabs(__tmp)));
	#endif

	__builtin_avr_delay_cycles(__ticks_dc);
     260:	8f ef       	ldi	r24, 0xFF	; 255
     262:	95 e3       	ldi	r25, 0x35	; 53
     264:	01 97       	sbiw	r24, 0x01	; 1
     266:	f1 f7       	brne	.-4      	; 0x264 <BMP180_getut+0x24>
     268:	00 c0       	rjmp	.+0      	; 0x26a <BMP180_getut+0x2a>
     26a:	00 00       	nop
	_delay_ms(5); // min. 4.5ms
	TWI_read_buf( BMP180_ADDR, 0xF6, 2, buf );
     26c:	9e 01       	movw	r18, r28
     26e:	2f 5f       	subi	r18, 0xFF	; 255
     270:	3f 4f       	sbci	r19, 0xFF	; 255
     272:	42 e0       	ldi	r20, 0x02	; 2
     274:	66 ef       	ldi	r22, 0xF6	; 246
     276:	8e ee       	ldi	r24, 0xEE	; 238
     278:	0e 94 f0 05 	call	0xbe0	; 0xbe0 <TWI_read_buf>
	ut = ((long) buf[0] << 8 | ((long) buf[1]));
     27c:	89 81       	ldd	r24, Y+1	; 0x01
     27e:	90 e0       	ldi	r25, 0x00	; 0
     280:	a0 e0       	ldi	r26, 0x00	; 0
     282:	b0 e0       	ldi	r27, 0x00	; 0
     284:	ba 2f       	mov	r27, r26
     286:	a9 2f       	mov	r26, r25
     288:	98 2f       	mov	r25, r24
     28a:	88 27       	eor	r24, r24
     28c:	2a 81       	ldd	r18, Y+2	; 0x02
     28e:	82 2b       	or	r24, r18
     290:	80 93 b6 00 	sts	0x00B6, r24
     294:	90 93 b7 00 	sts	0x00B7, r25
     298:	a0 93 b8 00 	sts	0x00B8, r26
     29c:	b0 93 b9 00 	sts	0x00B9, r27
}
     2a0:	0f 90       	pop	r0
     2a2:	0f 90       	pop	r0
     2a4:	0f 90       	pop	r0
     2a6:	df 91       	pop	r29
     2a8:	cf 91       	pop	r28
     2aa:	08 95       	ret

000002ac <BMP180_getup>:


//--------//--------//--------//--------//--------//--------//--------//--------//--------
void BMP180_getup(void)
{
     2ac:	cf 93       	push	r28
     2ae:	df 93       	push	r29
     2b0:	00 d0       	rcall	.+0      	; 0x2b2 <BMP180_getup+0x6>
     2b2:	00 d0       	rcall	.+0      	; 0x2b4 <BMP180_getup+0x8>
     2b4:	cd b7       	in	r28, 0x3d	; 61
     2b6:	de b7       	in	r29, 0x3e	; 62
	//odczyt cisnienia bez kompensacji
	uint8_t  buf[3], g;
	g=0x34+(BMP180_MODE << 6);
     2b8:	84 e3       	ldi	r24, 0x34	; 52
     2ba:	8c 83       	std	Y+4, r24	; 0x04
	TWI_write_buf( BMP180_ADDR, 0xF4, 1, &g );
     2bc:	9e 01       	movw	r18, r28
     2be:	2c 5f       	subi	r18, 0xFC	; 252
     2c0:	3f 4f       	sbci	r19, 0xFF	; 255
     2c2:	41 e0       	ldi	r20, 0x01	; 1
     2c4:	64 ef       	ldi	r22, 0xF4	; 244
     2c6:	8e ee       	ldi	r24, 0xEE	; 238
     2c8:	0e 94 c4 05 	call	0xb88	; 0xb88 <TWI_write_buf>
     2cc:	8f ef       	ldi	r24, 0xFF	; 255
     2ce:	95 e3       	ldi	r25, 0x35	; 53
     2d0:	01 97       	sbiw	r24, 0x01	; 1
     2d2:	f1 f7       	brne	.-4      	; 0x2d0 <BMP180_getup+0x24>
     2d4:	00 c0       	rjmp	.+0      	; 0x2d6 <BMP180_getup+0x2a>
     2d6:	00 00       	nop
	_delay_ms(2 + (3<<BMP180_MODE));
	TWI_read_buf( BMP180_ADDR, 0xF6, 3, buf );
     2d8:	9e 01       	movw	r18, r28
     2da:	2f 5f       	subi	r18, 0xFF	; 255
     2dc:	3f 4f       	sbci	r19, 0xFF	; 255
     2de:	43 e0       	ldi	r20, 0x03	; 3
     2e0:	66 ef       	ldi	r22, 0xF6	; 246
     2e2:	8e ee       	ldi	r24, 0xEE	; 238
     2e4:	0e 94 f0 05 	call	0xbe0	; 0xbe0 <TWI_read_buf>
	up = ((((long) buf[0] <<16) | ((long) buf[1] <<8) 
     2e8:	29 81       	ldd	r18, Y+1	; 0x01
     2ea:	8a 81       	ldd	r24, Y+2	; 0x02
     2ec:	90 e0       	ldi	r25, 0x00	; 0
     2ee:	a0 e0       	ldi	r26, 0x00	; 0
     2f0:	b0 e0       	ldi	r27, 0x00	; 0
     2f2:	ba 2f       	mov	r27, r26
     2f4:	a9 2f       	mov	r26, r25
     2f6:	98 2f       	mov	r25, r24
     2f8:	88 27       	eor	r24, r24
     2fa:	a2 2b       	or	r26, r18
		 | ((long) buf[2])) >> (8-BMP180_MODE)); // wartoœæ cisnienia bez kompensacji
     2fc:	89 2f       	mov	r24, r25
     2fe:	9a 2f       	mov	r25, r26
     300:	ab 2f       	mov	r26, r27
     302:	bb 27       	eor	r27, r27
	uint8_t  buf[3], g;
	g=0x34+(BMP180_MODE << 6);
	TWI_write_buf( BMP180_ADDR, 0xF4, 1, &g );
	_delay_ms(2 + (3<<BMP180_MODE));
	TWI_read_buf( BMP180_ADDR, 0xF6, 3, buf );
	up = ((((long) buf[0] <<16) | ((long) buf[1] <<8) 
     304:	80 93 a2 00 	sts	0x00A2, r24
     308:	90 93 a3 00 	sts	0x00A3, r25
     30c:	a0 93 a4 00 	sts	0x00A4, r26
     310:	b0 93 a5 00 	sts	0x00A5, r27
		 | ((long) buf[2])) >> (8-BMP180_MODE)); // wartoœæ cisnienia bez kompensacji
}
     314:	0f 90       	pop	r0
     316:	0f 90       	pop	r0
     318:	0f 90       	pop	r0
     31a:	0f 90       	pop	r0
     31c:	df 91       	pop	r29
     31e:	cf 91       	pop	r28
     320:	08 95       	ret

00000322 <BMP180_gett>:


//--------//--------//--------//--------//--------//--------//--------//--------//--------
long BMP180_gett(void)
{
     322:	8f 92       	push	r8
     324:	9f 92       	push	r9
     326:	af 92       	push	r10
     328:	bf 92       	push	r11
     32a:	cf 92       	push	r12
     32c:	df 92       	push	r13
     32e:	ef 92       	push	r14
     330:	ff 92       	push	r15
	long x1,x2, t;
	BMP180_getut();
     332:	0e 94 20 01 	call	0x240	; 0x240 <BMP180_getut>
	x1 = ((long)ut -  AC6) *  AC5 >> 15;
     336:	80 91 a0 00 	lds	r24, 0x00A0
     33a:	90 91 a1 00 	lds	r25, 0x00A1
     33e:	40 91 b6 00 	lds	r20, 0x00B6
     342:	50 91 b7 00 	lds	r21, 0x00B7
     346:	60 91 b8 00 	lds	r22, 0x00B8
     34a:	70 91 b9 00 	lds	r23, 0x00B9
     34e:	9a 01       	movw	r18, r20
     350:	ab 01       	movw	r20, r22
     352:	28 1b       	sub	r18, r24
     354:	39 0b       	sbc	r19, r25
     356:	41 09       	sbc	r20, r1
     358:	51 09       	sbc	r21, r1
     35a:	a0 91 a6 00 	lds	r26, 0x00A6
     35e:	b0 91 a7 00 	lds	r27, 0x00A7
     362:	0e 94 f4 0d 	call	0x1be8	; 0x1be8 <__muluhisi3>
     366:	6b 01       	movw	r12, r22
     368:	7c 01       	movw	r14, r24
     36a:	0b 2e       	mov	r0, r27
     36c:	bf e0       	ldi	r27, 0x0F	; 15
     36e:	f5 94       	asr	r15
     370:	e7 94       	ror	r14
     372:	d7 94       	ror	r13
     374:	c7 94       	ror	r12
     376:	ba 95       	dec	r27
     378:	d1 f7       	brne	.-12     	; 0x36e <BMP180_gett+0x4c>
     37a:	b0 2d       	mov	r27, r0
	x2 = ((int32_t) MC << 11) / (x1 +  MD);
     37c:	80 90 bc 00 	lds	r8, 0x00BC
     380:	90 90 bd 00 	lds	r9, 0x00BD
     384:	09 2c       	mov	r0, r9
     386:	00 0c       	add	r0, r0
     388:	aa 08       	sbc	r10, r10
     38a:	bb 08       	sbc	r11, r11
     38c:	c5 01       	movw	r24, r10
     38e:	b4 01       	movw	r22, r8
     390:	05 2e       	mov	r0, r21
     392:	5b e0       	ldi	r21, 0x0B	; 11
     394:	66 0f       	add	r22, r22
     396:	77 1f       	adc	r23, r23
     398:	88 1f       	adc	r24, r24
     39a:	99 1f       	adc	r25, r25
     39c:	5a 95       	dec	r21
     39e:	d1 f7       	brne	.-12     	; 0x394 <BMP180_gett+0x72>
     3a0:	50 2d       	mov	r21, r0
     3a2:	20 91 9c 00 	lds	r18, 0x009C
     3a6:	30 91 9d 00 	lds	r19, 0x009D
     3aa:	49 01       	movw	r8, r18
     3ac:	33 0f       	add	r19, r19
     3ae:	aa 08       	sbc	r10, r10
     3b0:	bb 08       	sbc	r11, r11
     3b2:	a5 01       	movw	r20, r10
     3b4:	94 01       	movw	r18, r8
     3b6:	2c 0d       	add	r18, r12
     3b8:	3d 1d       	adc	r19, r13
     3ba:	4e 1d       	adc	r20, r14
     3bc:	5f 1d       	adc	r21, r15
     3be:	0e 94 d5 0d 	call	0x1baa	; 0x1baa <__divmodsi4>
	B5 = x1 + x2;
     3c2:	d7 01       	movw	r26, r14
     3c4:	c6 01       	movw	r24, r12
     3c6:	82 0f       	add	r24, r18
     3c8:	93 1f       	adc	r25, r19
     3ca:	a4 1f       	adc	r26, r20
     3cc:	b5 1f       	adc	r27, r21
     3ce:	80 93 a8 00 	sts	0x00A8, r24
     3d2:	90 93 a9 00 	sts	0x00A9, r25
     3d6:	a0 93 aa 00 	sts	0x00AA, r26
     3da:	b0 93 ab 00 	sts	0x00AB, r27
	t = ((B5 + 8)>>4);
     3de:	08 96       	adiw	r24, 0x08	; 8
     3e0:	a1 1d       	adc	r26, r1
     3e2:	b1 1d       	adc	r27, r1
     3e4:	bc 01       	movw	r22, r24
     3e6:	cd 01       	movw	r24, r26
     3e8:	68 94       	set
     3ea:	13 f8       	bld	r1, 3
     3ec:	95 95       	asr	r25
     3ee:	87 95       	ror	r24
     3f0:	77 95       	ror	r23
     3f2:	67 95       	ror	r22
     3f4:	16 94       	lsr	r1
     3f6:	d1 f7       	brne	.-12     	; 0x3ec <BMP180_gett+0xca>
	return t;
}
     3f8:	ff 90       	pop	r15
     3fa:	ef 90       	pop	r14
     3fc:	df 90       	pop	r13
     3fe:	cf 90       	pop	r12
     400:	bf 90       	pop	r11
     402:	af 90       	pop	r10
     404:	9f 90       	pop	r9
     406:	8f 90       	pop	r8
     408:	08 95       	ret

0000040a <BMP180_getp>:


//--------//--------//--------//--------//--------//--------//--------//--------//--------
long BMP180_getp(void)
{
     40a:	4f 92       	push	r4
     40c:	5f 92       	push	r5
     40e:	6f 92       	push	r6
     410:	7f 92       	push	r7
     412:	8f 92       	push	r8
     414:	9f 92       	push	r9
     416:	af 92       	push	r10
     418:	bf 92       	push	r11
     41a:	cf 92       	push	r12
     41c:	df 92       	push	r13
     41e:	ef 92       	push	r14
     420:	ff 92       	push	r15
     422:	cf 93       	push	r28
     424:	df 93       	push	r29
     426:	00 d0       	rcall	.+0      	; 0x428 <BMP180_getp+0x1e>
     428:	00 d0       	rcall	.+0      	; 0x42a <BMP180_getp+0x20>
     42a:	cd b7       	in	r28, 0x3d	; 61
     42c:	de b7       	in	r29, 0x3e	; 62
	int32_t x1,x2,x3,b3,b6;
	unsigned long b4,b7;
	long p;

	BMP180_getup();
     42e:	0e 94 56 01 	call	0x2ac	; 0x2ac <BMP180_getup>
	b6 = B5 - 4000;
     432:	80 91 a8 00 	lds	r24, 0x00A8
     436:	90 91 a9 00 	lds	r25, 0x00A9
     43a:	a0 91 aa 00 	lds	r26, 0x00AA
     43e:	b0 91 ab 00 	lds	r27, 0x00AB
     442:	9c 01       	movw	r18, r24
     444:	ad 01       	movw	r20, r26
     446:	20 5a       	subi	r18, 0xA0	; 160
     448:	3f 40       	sbci	r19, 0x0F	; 15
     44a:	41 09       	sbc	r20, r1
     44c:	51 09       	sbc	r21, r1
     44e:	29 83       	std	Y+1, r18	; 0x01
     450:	3a 83       	std	Y+2, r19	; 0x02
     452:	4b 83       	std	Y+3, r20	; 0x03
     454:	5c 83       	std	Y+4, r21	; 0x04
	x1 = ( B2* (b6 * b6) >> 12) >> 11;
     456:	ca 01       	movw	r24, r20
     458:	b9 01       	movw	r22, r18
     45a:	0e 94 a3 0d 	call	0x1b46	; 0x1b46 <__mulsi3>
     45e:	2b 01       	movw	r4, r22
     460:	3c 01       	movw	r6, r24
	x2 = ( AC2 * b6) >> 11;
	x3 = x1 + x2;
	b3 = (((((long) AC1) * 4 + x3) << BMP180_MODE) + 2) >> 2;
	x1 = ( AC3 * b6) >> 13;
     462:	a0 91 b2 00 	lds	r26, 0x00B2
     466:	b0 91 b3 00 	lds	r27, 0x00B3
     46a:	0e 94 ff 0d 	call	0x1bfe	; 0x1bfe <__mulshisi3>
     46e:	6b 01       	movw	r12, r22
     470:	7c 01       	movw	r14, r24
     472:	0b 2e       	mov	r0, r27
     474:	bd e0       	ldi	r27, 0x0D	; 13
     476:	f5 94       	asr	r15
     478:	e7 94       	ror	r14
     47a:	d7 94       	ror	r13
     47c:	c7 94       	ror	r12
     47e:	ba 95       	dec	r27
     480:	d1 f7       	brne	.-12     	; 0x476 <BMP180_getp+0x6c>
     482:	b0 2d       	mov	r27, r0
	x2 = ( B1 * ((b6 * b6) >> 12)) >> 16;
     484:	a0 91 ba 00 	lds	r26, 0x00BA
     488:	b0 91 bb 00 	lds	r27, 0x00BB
     48c:	a3 01       	movw	r20, r6
     48e:	92 01       	movw	r18, r4
     490:	01 2e       	mov	r0, r17
     492:	1c e0       	ldi	r17, 0x0C	; 12
     494:	55 95       	asr	r21
     496:	47 95       	ror	r20
     498:	37 95       	ror	r19
     49a:	27 95       	ror	r18
     49c:	1a 95       	dec	r17
     49e:	d1 f7       	brne	.-12     	; 0x494 <BMP180_getp+0x8a>
     4a0:	10 2d       	mov	r17, r0
     4a2:	0e 94 ff 0d 	call	0x1bfe	; 0x1bfe <__mulshisi3>
     4a6:	bb 27       	eor	r27, r27
     4a8:	97 fd       	sbrc	r25, 7
     4aa:	b0 95       	com	r27
     4ac:	ab 2f       	mov	r26, r27
	x3 = ((x1 + x2) + 2) >> 2;
     4ae:	8c 0d       	add	r24, r12
     4b0:	9d 1d       	adc	r25, r13
     4b2:	ae 1d       	adc	r26, r14
     4b4:	bf 1d       	adc	r27, r15
     4b6:	02 96       	adiw	r24, 0x02	; 2
     4b8:	a1 1d       	adc	r26, r1
     4ba:	b1 1d       	adc	r27, r1
     4bc:	b5 95       	asr	r27
     4be:	a7 95       	ror	r26
     4c0:	97 95       	ror	r25
     4c2:	87 95       	ror	r24
     4c4:	b5 95       	asr	r27
     4c6:	a7 95       	ror	r26
     4c8:	97 95       	ror	r25
     4ca:	87 95       	ror	r24
	b4 = ( AC4 * (uint32_t)(x3 + 32768)) >> 15;
     4cc:	9c 01       	movw	r18, r24
     4ce:	ad 01       	movw	r20, r26
     4d0:	30 58       	subi	r19, 0x80	; 128
     4d2:	4f 4f       	sbci	r20, 0xFF	; 255
     4d4:	5f 4f       	sbci	r21, 0xFF	; 255
     4d6:	a0 91 ac 00 	lds	r26, 0x00AC
     4da:	b0 91 ad 00 	lds	r27, 0x00AD
     4de:	0e 94 f4 0d 	call	0x1be8	; 0x1be8 <__muluhisi3>
     4e2:	6b 01       	movw	r12, r22
     4e4:	7c 01       	movw	r14, r24
     4e6:	0b 2e       	mov	r0, r27
     4e8:	bf e0       	ldi	r27, 0x0F	; 15
     4ea:	f6 94       	lsr	r15
     4ec:	e7 94       	ror	r14
     4ee:	d7 94       	ror	r13
     4f0:	c7 94       	ror	r12
     4f2:	ba 95       	dec	r27
     4f4:	d1 f7       	brne	.-12     	; 0x4ea <BMP180_getp+0xe0>
     4f6:	b0 2d       	mov	r27, r0
	BMP180_getup();
	b6 = B5 - 4000;
	x1 = ( B2* (b6 * b6) >> 12) >> 11;
	x2 = ( AC2 * b6) >> 11;
	x3 = x1 + x2;
	b3 = (((((long) AC1) * 4 + x3) << BMP180_MODE) + 2) >> 2;
     4f8:	80 91 9e 00 	lds	r24, 0x009E
     4fc:	90 91 9f 00 	lds	r25, 0x009F
     500:	09 2e       	mov	r0, r25
     502:	00 0c       	add	r0, r0
     504:	aa 0b       	sbc	r26, r26
     506:	bb 0b       	sbc	r27, r27
     508:	4c 01       	movw	r8, r24
     50a:	5d 01       	movw	r10, r26
     50c:	88 0c       	add	r8, r8
     50e:	99 1c       	adc	r9, r9
     510:	aa 1c       	adc	r10, r10
     512:	bb 1c       	adc	r11, r11
     514:	88 0c       	add	r8, r8
     516:	99 1c       	adc	r9, r9
     518:	aa 1c       	adc	r10, r10
     51a:	bb 1c       	adc	r11, r11
	unsigned long b4,b7;
	long p;

	BMP180_getup();
	b6 = B5 - 4000;
	x1 = ( B2* (b6 * b6) >> 12) >> 11;
     51c:	a0 91 b4 00 	lds	r26, 0x00B4
     520:	b0 91 b5 00 	lds	r27, 0x00B5
     524:	a3 01       	movw	r20, r6
     526:	92 01       	movw	r18, r4
     528:	0e 94 ff 0d 	call	0x1bfe	; 0x1bfe <__mulshisi3>
     52c:	2b 01       	movw	r4, r22
     52e:	3c 01       	movw	r6, r24
     530:	03 2e       	mov	r0, r19
     532:	37 e1       	ldi	r19, 0x17	; 23
     534:	75 94       	asr	r7
     536:	67 94       	ror	r6
     538:	57 94       	ror	r5
     53a:	47 94       	ror	r4
     53c:	3a 95       	dec	r19
     53e:	d1 f7       	brne	.-12     	; 0x534 <BMP180_getp+0x12a>
     540:	30 2d       	mov	r19, r0
	x2 = ( AC2 * b6) >> 11;
     542:	a0 91 b0 00 	lds	r26, 0x00B0
     546:	b0 91 b1 00 	lds	r27, 0x00B1
     54a:	29 81       	ldd	r18, Y+1	; 0x01
     54c:	3a 81       	ldd	r19, Y+2	; 0x02
     54e:	4b 81       	ldd	r20, Y+3	; 0x03
     550:	5c 81       	ldd	r21, Y+4	; 0x04
     552:	0e 94 ff 0d 	call	0x1bfe	; 0x1bfe <__mulshisi3>
     556:	ab 01       	movw	r20, r22
     558:	bc 01       	movw	r22, r24
     55a:	03 2e       	mov	r0, r19
     55c:	3b e0       	ldi	r19, 0x0B	; 11
     55e:	75 95       	asr	r23
     560:	67 95       	ror	r22
     562:	57 95       	ror	r21
     564:	47 95       	ror	r20
     566:	3a 95       	dec	r19
     568:	d1 f7       	brne	.-12     	; 0x55e <BMP180_getp+0x154>
     56a:	30 2d       	mov	r19, r0
	x3 = x1 + x2;
     56c:	d3 01       	movw	r26, r6
     56e:	c2 01       	movw	r24, r4
     570:	84 0f       	add	r24, r20
     572:	95 1f       	adc	r25, r21
     574:	a6 1f       	adc	r26, r22
     576:	b7 1f       	adc	r27, r23
	b3 = (((((long) AC1) * 4 + x3) << BMP180_MODE) + 2) >> 2;
     578:	88 0d       	add	r24, r8
     57a:	99 1d       	adc	r25, r9
     57c:	aa 1d       	adc	r26, r10
     57e:	bb 1d       	adc	r27, r11
     580:	02 96       	adiw	r24, 0x02	; 2
     582:	a1 1d       	adc	r26, r1
     584:	b1 1d       	adc	r27, r1
     586:	b5 95       	asr	r27
     588:	a7 95       	ror	r26
     58a:	97 95       	ror	r25
     58c:	87 95       	ror	r24
     58e:	b5 95       	asr	r27
     590:	a7 95       	ror	r26
     592:	97 95       	ror	r25
     594:	87 95       	ror	r24
	x1 = ( AC3 * b6) >> 13;
	x2 = ( B1 * ((b6 * b6) >> 12)) >> 16;
	x3 = ((x1 + x2) + 2) >> 2;
	b4 = ( AC4 * (uint32_t)(x3 + 32768)) >> 15;
	b7 = ((uint32_t)up - b3) * (50000 >> BMP180_MODE);
     596:	40 91 a2 00 	lds	r20, 0x00A2
     59a:	50 91 a3 00 	lds	r21, 0x00A3
     59e:	60 91 a4 00 	lds	r22, 0x00A4
     5a2:	70 91 a5 00 	lds	r23, 0x00A5
     5a6:	9a 01       	movw	r18, r20
     5a8:	ab 01       	movw	r20, r22
     5aa:	28 1b       	sub	r18, r24
     5ac:	39 0b       	sbc	r19, r25
     5ae:	4a 0b       	sbc	r20, r26
     5b0:	5b 0b       	sbc	r21, r27
     5b2:	a0 e5       	ldi	r26, 0x50	; 80
     5b4:	b3 ec       	ldi	r27, 0xC3	; 195
     5b6:	0e 94 f4 0d 	call	0x1be8	; 0x1be8 <__muluhisi3>
	p = b7 < 0x80000000 ? (b7 << 1) / b4 : (b7 / b4) << 1;
     5ba:	99 23       	and	r25, r25
     5bc:	5c f0       	brlt	.+22     	; 0x5d4 <BMP180_getp+0x1ca>
     5be:	66 0f       	add	r22, r22
     5c0:	77 1f       	adc	r23, r23
     5c2:	88 1f       	adc	r24, r24
     5c4:	99 1f       	adc	r25, r25
     5c6:	a7 01       	movw	r20, r14
     5c8:	96 01       	movw	r18, r12
     5ca:	0e 94 b3 0d 	call	0x1b66	; 0x1b66 <__udivmodsi4>
     5ce:	69 01       	movw	r12, r18
     5d0:	7a 01       	movw	r14, r20
     5d2:	0a c0       	rjmp	.+20     	; 0x5e8 <BMP180_getp+0x1de>
     5d4:	a7 01       	movw	r20, r14
     5d6:	96 01       	movw	r18, r12
     5d8:	0e 94 b3 0d 	call	0x1b66	; 0x1b66 <__udivmodsi4>
     5dc:	69 01       	movw	r12, r18
     5de:	7a 01       	movw	r14, r20
     5e0:	cc 0c       	add	r12, r12
     5e2:	dd 1c       	adc	r13, r13
     5e4:	ee 1c       	adc	r14, r14
     5e6:	ff 1c       	adc	r15, r15
	x1 = (p >> 8) * (p >> 8);
     5e8:	99 27       	eor	r25, r25
     5ea:	f7 fc       	sbrc	r15, 7
     5ec:	9a 95       	dec	r25
     5ee:	8f 2d       	mov	r24, r15
     5f0:	7e 2d       	mov	r23, r14
     5f2:	6d 2d       	mov	r22, r13
     5f4:	9b 01       	movw	r18, r22
     5f6:	ac 01       	movw	r20, r24
     5f8:	0e 94 a3 0d 	call	0x1b46	; 0x1b46 <__mulsi3>
     5fc:	9b 01       	movw	r18, r22
     5fe:	ac 01       	movw	r20, r24
	x1 = (x1 * 3038) >> 16;
     600:	ae ed       	ldi	r26, 0xDE	; 222
     602:	bb e0       	ldi	r27, 0x0B	; 11
     604:	0e 94 f4 0d 	call	0x1be8	; 0x1be8 <__muluhisi3>
     608:	4c 01       	movw	r8, r24
     60a:	bb 24       	eor	r11, r11
     60c:	97 fc       	sbrc	r9, 7
     60e:	b0 94       	com	r11
     610:	ab 2c       	mov	r10, r11
	x2 = (-7357 * p) >> 16;
     612:	a3 e4       	ldi	r26, 0x43	; 67
     614:	b3 ee       	ldi	r27, 0xE3	; 227
     616:	a7 01       	movw	r20, r14
     618:	96 01       	movw	r18, r12
     61a:	0e 94 02 0e 	call	0x1c04	; 0x1c04 <__mulohisi3>
     61e:	bb 27       	eor	r27, r27
     620:	97 fd       	sbrc	r25, 7
     622:	b0 95       	com	r27
     624:	ab 2f       	mov	r26, r27
	p = p + ((x1 + x2 + 3791) >> 4);
     626:	88 0d       	add	r24, r8
     628:	99 1d       	adc	r25, r9
     62a:	aa 1d       	adc	r26, r10
     62c:	bb 1d       	adc	r27, r11
     62e:	81 53       	subi	r24, 0x31	; 49
     630:	91 4f       	sbci	r25, 0xF1	; 241
     632:	af 4f       	sbci	r26, 0xFF	; 255
     634:	bf 4f       	sbci	r27, 0xFF	; 255
     636:	68 94       	set
     638:	13 f8       	bld	r1, 3
     63a:	b5 95       	asr	r27
     63c:	a7 95       	ror	r26
     63e:	97 95       	ror	r25
     640:	87 95       	ror	r24
     642:	16 94       	lsr	r1
     644:	d1 f7       	brne	.-12     	; 0x63a <BMP180_getp+0x230>
     646:	bc 01       	movw	r22, r24
     648:	cd 01       	movw	r24, r26
     64a:	6c 0d       	add	r22, r12
     64c:	7d 1d       	adc	r23, r13
     64e:	8e 1d       	adc	r24, r14
     650:	9f 1d       	adc	r25, r15
	return p;
}
     652:	0f 90       	pop	r0
     654:	0f 90       	pop	r0
     656:	0f 90       	pop	r0
     658:	0f 90       	pop	r0
     65a:	df 91       	pop	r29
     65c:	cf 91       	pop	r28
     65e:	ff 90       	pop	r15
     660:	ef 90       	pop	r14
     662:	df 90       	pop	r13
     664:	cf 90       	pop	r12
     666:	bf 90       	pop	r11
     668:	af 90       	pop	r10
     66a:	9f 90       	pop	r9
     66c:	8f 90       	pop	r8
     66e:	7f 90       	pop	r7
     670:	6f 90       	pop	r6
     672:	5f 90       	pop	r5
     674:	4f 90       	pop	r4
     676:	08 95       	ret

00000678 <crc8>:
	uint8_t  data;
	uint8_t  feedback_bit;

	crc = CRC8INIT;

	for (loop_count = 0; loop_count != number_of_bytes_to_read; loop_count++)
     678:	61 15       	cp	r22, r1
     67a:	71 05       	cpc	r23, r1
     67c:	b1 f0       	breq	.+44     	; 0x6aa <crc8+0x32>
     67e:	fc 01       	movw	r30, r24
     680:	68 0f       	add	r22, r24
     682:	79 1f       	adc	r23, r25
     684:	80 e0       	ldi	r24, 0x00	; 0
	{
		data = data_in[loop_count];
     686:	58 e0       	ldi	r21, 0x08	; 8
		{
			feedback_bit = (crc ^ data) & 0x01;

			if ( feedback_bit == 0x01 ) 
			{
				crc = crc ^ CRC8POLY;
     688:	48 e1       	ldi	r20, 0x18	; 24

	crc = CRC8INIT;

	for (loop_count = 0; loop_count != number_of_bytes_to_read; loop_count++)
	{
		data = data_in[loop_count];
     68a:	21 91       	ld	r18, Z+
     68c:	95 2f       	mov	r25, r21

		bit_counter = 8;
		
		do 
		{
			feedback_bit = (crc ^ data) & 0x01;
     68e:	32 2f       	mov	r19, r18
     690:	38 27       	eor	r19, r24

			if ( feedback_bit == 0x01 ) 
     692:	30 ff       	sbrs	r19, 0
     694:	0c c0       	rjmp	.+24     	; 0x6ae <crc8+0x36>
			{
				crc = crc ^ CRC8POLY;
     696:	84 27       	eor	r24, r20
			}
			
			crc = (crc >> 1) & 0x7F;
     698:	86 95       	lsr	r24
			
			if ( 0x01 == feedback_bit ) 
			{
				crc = crc | 0x80;
     69a:	80 68       	ori	r24, 0x80	; 128
			}

			data = data >> 1;
     69c:	26 95       	lsr	r18
     69e:	91 50       	subi	r25, 0x01	; 1
			bit_counter--;

		} while (bit_counter > 0);
     6a0:	b1 f7       	brne	.-20     	; 0x68e <crc8+0x16>
	uint8_t  data;
	uint8_t  feedback_bit;

	crc = CRC8INIT;

	for (loop_count = 0; loop_count != number_of_bytes_to_read; loop_count++)
     6a2:	e6 17       	cp	r30, r22
     6a4:	f7 07       	cpc	r31, r23
     6a6:	89 f7       	brne	.-30     	; 0x68a <crc8+0x12>
     6a8:	08 95       	ret
	uint16_t loop_count;
	uint8_t  bit_counter;
	uint8_t  data;
	uint8_t  feedback_bit;

	crc = CRC8INIT;
     6aa:	80 e0       	ldi	r24, 0x00	; 0
     6ac:	08 95       	ret
			if ( feedback_bit == 0x01 ) 
			{
				crc = crc ^ CRC8POLY;
			}
			
			crc = (crc >> 1) & 0x7F;
     6ae:	86 95       	lsr	r24
     6b0:	f5 cf       	rjmp	.-22     	; 0x69c <crc8+0x24>

000006b2 <dht_getdata>:
 * get data from sensor
 */
//--------//--------//--------//--------//--------//--------//--------//--------//--------
#if DHT_FLOAT == 1
int8_t dht_getdata(float *temperature, float *humidity) 
{
     6b2:	6f 92       	push	r6
     6b4:	7f 92       	push	r7
     6b6:	8f 92       	push	r8
     6b8:	9f 92       	push	r9
     6ba:	bf 92       	push	r11
     6bc:	cf 92       	push	r12
     6be:	df 92       	push	r13
     6c0:	ef 92       	push	r14
     6c2:	ff 92       	push	r15
     6c4:	0f 93       	push	r16
     6c6:	1f 93       	push	r17
     6c8:	cf 93       	push	r28
     6ca:	df 93       	push	r29
     6cc:	00 d0       	rcall	.+0      	; 0x6ce <dht_getdata+0x1c>
     6ce:	00 d0       	rcall	.+0      	; 0x6d0 <dht_getdata+0x1e>
     6d0:	1f 92       	push	r1
     6d2:	cd b7       	in	r28, 0x3d	; 61
     6d4:	de b7       	in	r29, 0x3e	; 62
     6d6:	4c 01       	movw	r8, r24
     6d8:	3b 01       	movw	r6, r22
{
#endif
	uint8_t bits[5];
	uint8_t i,j = 0;

	memset(bits, 0, sizeof(bits));
     6da:	fe 01       	movw	r30, r28
     6dc:	31 96       	adiw	r30, 0x01	; 1
     6de:	85 e0       	ldi	r24, 0x05	; 5
     6e0:	df 01       	movw	r26, r30
     6e2:	1d 92       	st	X+, r1
     6e4:	8a 95       	dec	r24
     6e6:	e9 f7       	brne	.-6      	; 0x6e2 <dht_getdata+0x30>

	//reset port
	DHT_DDR |= (1<<DHT_INPUTPIN); //output
     6e8:	8e 9a       	sbi	0x11, 6	; 17
	DHT_PORT |= (1<<DHT_INPUTPIN); //high
     6ea:	96 9a       	sbi	0x12, 6	; 18
     6ec:	bf ef       	ldi	r27, 0xFF	; 255
     6ee:	ef e5       	ldi	r30, 0x5F	; 95
     6f0:	f3 e0       	ldi	r31, 0x03	; 3
     6f2:	b1 50       	subi	r27, 0x01	; 1
     6f4:	e0 40       	sbci	r30, 0x00	; 0
     6f6:	f0 40       	sbci	r31, 0x00	; 0
     6f8:	e1 f7       	brne	.-8      	; 0x6f2 <dht_getdata+0x40>
     6fa:	00 c0       	rjmp	.+0      	; 0x6fc <dht_getdata+0x4a>
     6fc:	00 00       	nop
	_delay_ms(100);

	//send request
	DHT_PORT &= ~(1<<DHT_INPUTPIN); //low
     6fe:	96 98       	cbi	0x12, 6	; 18
	#else
		//round up by default
		__ticks_dc = (uint32_t)(ceil(fabs(__tmp)));
	#endif

	__builtin_avr_delay_cycles(__ticks_dc);
     700:	86 e6       	ldi	r24, 0x66	; 102
     702:	95 e0       	ldi	r25, 0x05	; 5
     704:	01 97       	sbiw	r24, 0x01	; 1
     706:	f1 f7       	brne	.-4      	; 0x704 <dht_getdata+0x52>
     708:	00 00       	nop
	#if DHT_TYPE == DHT_DHT11
	_delay_ms(18);
	#elif DHT_TYPE == DHT_DHT22
	_delay_us(500);
	#endif
	DHT_PORT |= (1<<DHT_INPUTPIN); //high
     70a:	96 9a       	sbi	0x12, 6	; 18
	DHT_DDR &= ~(1<<DHT_INPUTPIN); //input
     70c:	8e 98       	cbi	0x11, 6	; 17
     70e:	93 e9       	ldi	r25, 0x93	; 147
     710:	9a 95       	dec	r25
     712:	f1 f7       	brne	.-4      	; 0x710 <dht_getdata+0x5e>
     714:	00 c0       	rjmp	.+0      	; 0x716 <dht_getdata+0x64>
	_delay_us(40);

	//check start condition 1
	if((DHT_PIN & (1<<DHT_INPUTPIN))) 
     716:	86 99       	sbic	0x10, 6	; 16
     718:	9b c0       	rjmp	.+310    	; 0x850 <dht_getdata+0x19e>
     71a:	ad ed       	ldi	r26, 0xDD	; 221
     71c:	b0 e0       	ldi	r27, 0x00	; 0
     71e:	11 97       	sbiw	r26, 0x01	; 1
     720:	f1 f7       	brne	.-4      	; 0x71e <dht_getdata+0x6c>
	{
		return -1;
	}
	_delay_us(80);
	//check start condition 2
	if(!(DHT_PIN & (1<<DHT_INPUTPIN))) 
     722:	86 9b       	sbis	0x10, 6	; 16
     724:	97 c0       	rjmp	.+302    	; 0x854 <dht_getdata+0x1a2>
     726:	ed ed       	ldi	r30, 0xDD	; 221
     728:	f0 e0       	ldi	r31, 0x00	; 0
     72a:	31 97       	sbiw	r30, 0x01	; 1
     72c:	f1 f7       	brne	.-4      	; 0x72a <dht_getdata+0x78>
     72e:	8e 01       	movw	r16, r28
     730:	0f 5f       	subi	r16, 0xFF	; 255
     732:	1f 4f       	sbci	r17, 0xFF	; 255
     734:	6e 01       	movw	r12, r28
     736:	f6 e0       	ldi	r31, 0x06	; 6
     738:	cf 0e       	add	r12, r31
     73a:	d1 1c       	adc	r13, r1
 * get data from sensor
 */
//--------//--------//--------//--------//--------//--------//--------//--------//--------
#if DHT_FLOAT == 1
int8_t dht_getdata(float *temperature, float *humidity) 
{
     73c:	0f 2e       	mov	r0, r31
     73e:	f7 e0       	ldi	r31, 0x07	; 7
     740:	ff 2e       	mov	r15, r31
     742:	f0 2d       	mov	r31, r0
     744:	b1 2c       	mov	r11, r1
     746:	60 e0       	ldi	r22, 0x00	; 0
					return -1; //timeout
				}
			}
			_delay_us(30);
			if(DHT_PIN & (1<<DHT_INPUTPIN)) //if input is high after 30 us, get result
				result |= (1<<(7-i));
     748:	e1 e0       	ldi	r30, 0x01	; 1
     74a:	f0 e0       	ldi	r31, 0x00	; 0
 * get data from sensor
 */
//--------//--------//--------//--------//--------//--------//--------//--------//--------
#if DHT_FLOAT == 1
int8_t dht_getdata(float *temperature, float *humidity) 
{
     74c:	79 ec       	ldi	r23, 0xC9	; 201
     74e:	90 e0       	ldi	r25, 0x00	; 0
     750:	28 c0       	rjmp	.+80     	; 0x7a2 <dht_getdata+0xf0>
     752:	21 50       	subi	r18, 0x01	; 1
     754:	31 09       	sbc	r19, r1
		{//read every bit
			timeoutcounter = 0;
			while(!(DHT_PIN & (1<<DHT_INPUTPIN))) 
			{ //wait for an high input (non blocking)
				timeoutcounter++;
				if(timeoutcounter > DHT_TIMEOUT) 
     756:	19 f4       	brne	.+6      	; 0x75e <dht_getdata+0xac>
     758:	7f c0       	rjmp	.+254    	; 0x858 <dht_getdata+0x1a6>
 * get data from sensor
 */
//--------//--------//--------//--------//--------//--------//--------//--------//--------
#if DHT_FLOAT == 1
int8_t dht_getdata(float *temperature, float *humidity) 
{
     75a:	27 2f       	mov	r18, r23
     75c:	39 2f       	mov	r19, r25
	{ //read 5 byte
		uint8_t result=0;
		for(i=0; i<8; i++) 
		{//read every bit
			timeoutcounter = 0;
			while(!(DHT_PIN & (1<<DHT_INPUTPIN))) 
     75e:	86 9b       	sbis	0x10, 6	; 16
     760:	f8 cf       	rjmp	.-16     	; 0x752 <dht_getdata+0xa0>
     762:	2e e6       	ldi	r18, 0x6E	; 110
     764:	2a 95       	dec	r18
     766:	f1 f7       	brne	.-4      	; 0x764 <dht_getdata+0xb2>
     768:	00 c0       	rjmp	.+0      	; 0x76a <dht_getdata+0xb8>
				{
					return -1; //timeout
				}
			}
			_delay_us(30);
			if(DHT_PIN & (1<<DHT_INPUTPIN)) //if input is high after 30 us, get result
     76a:	86 9b       	sbis	0x10, 6	; 16
     76c:	08 c0       	rjmp	.+16     	; 0x77e <dht_getdata+0xcc>
				result |= (1<<(7-i));
     76e:	9f 01       	movw	r18, r30
     770:	04 2e       	mov	r0, r20
     772:	02 c0       	rjmp	.+4      	; 0x778 <dht_getdata+0xc6>
     774:	22 0f       	add	r18, r18
     776:	33 1f       	adc	r19, r19
     778:	0a 94       	dec	r0
     77a:	e2 f7       	brpl	.-8      	; 0x774 <dht_getdata+0xc2>
     77c:	82 2b       	or	r24, r18
				
			timeoutcounter = 0;
			while(DHT_PIN & (1<<DHT_INPUTPIN)) 
     77e:	27 2f       	mov	r18, r23
     780:	39 2f       	mov	r19, r25
     782:	04 c0       	rjmp	.+8      	; 0x78c <dht_getdata+0xda>
     784:	21 50       	subi	r18, 0x01	; 1
     786:	31 09       	sbc	r19, r1
			{ //wait until input get low (non blocking)
				timeoutcounter++;
				if(timeoutcounter > DHT_TIMEOUT) 
     788:	09 f4       	brne	.+2      	; 0x78c <dht_getdata+0xda>
     78a:	68 c0       	rjmp	.+208    	; 0x85c <dht_getdata+0x1aa>
			_delay_us(30);
			if(DHT_PIN & (1<<DHT_INPUTPIN)) //if input is high after 30 us, get result
				result |= (1<<(7-i));
				
			timeoutcounter = 0;
			while(DHT_PIN & (1<<DHT_INPUTPIN)) 
     78c:	86 99       	sbic	0x10, 6	; 16
     78e:	fa cf       	rjmp	.-12     	; 0x784 <dht_getdata+0xd2>
     790:	41 50       	subi	r20, 0x01	; 1
     792:	51 09       	sbc	r21, r1
     794:	10 f7       	brcc	.-60     	; 0x75a <dht_getdata+0xa8>
				{
					return -1; //timeout
				}
			}
		}
		bits[j] = result;
     796:	d8 01       	movw	r26, r16
     798:	8d 93       	st	X+, r24
     79a:	8d 01       	movw	r16, r26
	}
	_delay_us(80);

	//read the data
	uint16_t timeoutcounter = 0;
	for (j=0; j<5; j++) 
     79c:	ac 15       	cp	r26, r12
     79e:	bd 05       	cpc	r27, r13
     7a0:	21 f0       	breq	.+8      	; 0x7aa <dht_getdata+0xf8>
 * get data from sensor
 */
//--------//--------//--------//--------//--------//--------//--------//--------//--------
#if DHT_FLOAT == 1
int8_t dht_getdata(float *temperature, float *humidity) 
{
     7a2:	4f 2d       	mov	r20, r15
     7a4:	5b 2d       	mov	r21, r11
     7a6:	86 2f       	mov	r24, r22
     7a8:	d8 cf       	rjmp	.-80     	; 0x75a <dht_getdata+0xa8>
		}
		bits[j] = result;
	}

	//reset port
	DHT_DDR |= (1<<DHT_INPUTPIN); //output
     7aa:	8e 9a       	sbi	0x11, 6	; 17
	DHT_PORT |= (1<<DHT_INPUTPIN); //low
     7ac:	96 9a       	sbi	0x12, 6	; 18
	#else
		//round up by default
		__ticks_dc = (uint32_t)(ceil(fabs(__tmp)));
	#endif

	__builtin_avr_delay_cycles(__ticks_dc);
     7ae:	bf ef       	ldi	r27, 0xFF	; 255
     7b0:	ef e5       	ldi	r30, 0x5F	; 95
     7b2:	f3 e0       	ldi	r31, 0x03	; 3
     7b4:	b1 50       	subi	r27, 0x01	; 1
     7b6:	e0 40       	sbci	r30, 0x00	; 0
     7b8:	f0 40       	sbci	r31, 0x00	; 0
     7ba:	e1 f7       	brne	.-8      	; 0x7b4 <dht_getdata+0x102>
     7bc:	00 c0       	rjmp	.+0      	; 0x7be <dht_getdata+0x10c>
     7be:	00 00       	nop
	_delay_ms(100);

	//check checksum
	if ((uint8_t)(bits[0] + bits[1] + bits[2] + bits[3]) == bits[4]) 
     7c0:	29 81       	ldd	r18, Y+1	; 0x01
     7c2:	ea 80       	ldd	r14, Y+2	; 0x02
     7c4:	9b 81       	ldd	r25, Y+3	; 0x03
     7c6:	6c 81       	ldd	r22, Y+4	; 0x04
     7c8:	8e 2d       	mov	r24, r14
     7ca:	82 0f       	add	r24, r18
     7cc:	89 0f       	add	r24, r25
     7ce:	86 0f       	add	r24, r22
     7d0:	3d 81       	ldd	r19, Y+5	; 0x05
     7d2:	83 13       	cpse	r24, r19
     7d4:	45 c0       	rjmp	.+138    	; 0x860 <__stack+0x1>
     7d6:	63 01       	movw	r12, r6
		//return temperature and humidity
		#if DHT_TYPE == DHT_DHT11
		*temperature = bits[2];
		*humidity = bits[0];
		#elif DHT_TYPE == DHT_DHT22
		uint16_t rawhumidity = bits[0]<<8 | bits[1];
     7d8:	f1 2c       	mov	r15, r1
     7da:	f2 2a       	or	r15, r18
		uint16_t rawtemperature = bits[2]<<8 | bits[3];
     7dc:	70 e0       	ldi	r23, 0x00	; 0
     7de:	79 2b       	or	r23, r25
		if(rawtemperature & 0x8000) 
     7e0:	77 23       	and	r23, r23
     7e2:	a4 f4       	brge	.+40     	; 0x80c <dht_getdata+0x15a>
		{
			*temperature = (float)((rawtemperature & 0x7FFF) / 10.0) * -1.0;
     7e4:	7f 77       	andi	r23, 0x7F	; 127
     7e6:	80 e0       	ldi	r24, 0x00	; 0
     7e8:	90 e0       	ldi	r25, 0x00	; 0
     7ea:	0e 94 5a 0c 	call	0x18b4	; 0x18b4 <__floatunsisf>
     7ee:	20 e0       	ldi	r18, 0x00	; 0
     7f0:	30 e0       	ldi	r19, 0x00	; 0
     7f2:	40 e2       	ldi	r20, 0x20	; 32
     7f4:	51 e4       	ldi	r21, 0x41	; 65
     7f6:	0e 94 76 0b 	call	0x16ec	; 0x16ec <__divsf3>
     7fa:	dc 01       	movw	r26, r24
     7fc:	cb 01       	movw	r24, r22
     7fe:	b0 58       	subi	r27, 0x80	; 128
     800:	f4 01       	movw	r30, r8
     802:	80 83       	st	Z, r24
     804:	91 83       	std	Z+1, r25	; 0x01
     806:	a2 83       	std	Z+2, r26	; 0x02
     808:	b3 83       	std	Z+3, r27	; 0x03
     80a:	10 c0       	rjmp	.+32     	; 0x82c <dht_getdata+0x17a>
		} else 
		{
			*temperature = (float)(rawtemperature)/10.0;
     80c:	80 e0       	ldi	r24, 0x00	; 0
     80e:	90 e0       	ldi	r25, 0x00	; 0
     810:	0e 94 5a 0c 	call	0x18b4	; 0x18b4 <__floatunsisf>
     814:	20 e0       	ldi	r18, 0x00	; 0
     816:	30 e0       	ldi	r19, 0x00	; 0
     818:	40 e2       	ldi	r20, 0x20	; 32
     81a:	51 e4       	ldi	r21, 0x41	; 65
     81c:	0e 94 76 0b 	call	0x16ec	; 0x16ec <__divsf3>
     820:	d4 01       	movw	r26, r8
     822:	6d 93       	st	X+, r22
     824:	7d 93       	st	X+, r23
     826:	8d 93       	st	X+, r24
     828:	9c 93       	st	X, r25
     82a:	13 97       	sbiw	r26, 0x03	; 3
		}
		
		*humidity = (float)(rawhumidity)/10.0;
     82c:	b7 01       	movw	r22, r14
     82e:	80 e0       	ldi	r24, 0x00	; 0
     830:	90 e0       	ldi	r25, 0x00	; 0
     832:	0e 94 5a 0c 	call	0x18b4	; 0x18b4 <__floatunsisf>
     836:	20 e0       	ldi	r18, 0x00	; 0
     838:	30 e0       	ldi	r19, 0x00	; 0
     83a:	40 e2       	ldi	r20, 0x20	; 32
     83c:	51 e4       	ldi	r21, 0x41	; 65
     83e:	0e 94 76 0b 	call	0x16ec	; 0x16ec <__divsf3>
     842:	f6 01       	movw	r30, r12
     844:	60 83       	st	Z, r22
     846:	71 83       	std	Z+1, r23	; 0x01
     848:	82 83       	std	Z+2, r24	; 0x02
     84a:	93 83       	std	Z+3, r25	; 0x03
		#endif
		return 0;
     84c:	80 e0       	ldi	r24, 0x00	; 0
     84e:	09 c0       	rjmp	.+18     	; 0x862 <__stack+0x3>
	_delay_us(40);

	//check start condition 1
	if((DHT_PIN & (1<<DHT_INPUTPIN))) 
	{
		return -1;
     850:	8f ef       	ldi	r24, 0xFF	; 255
     852:	07 c0       	rjmp	.+14     	; 0x862 <__stack+0x3>
	}
	_delay_us(80);
	//check start condition 2
	if(!(DHT_PIN & (1<<DHT_INPUTPIN))) 
	{
		return -1;
     854:	8f ef       	ldi	r24, 0xFF	; 255
     856:	05 c0       	rjmp	.+10     	; 0x862 <__stack+0x3>
			while(!(DHT_PIN & (1<<DHT_INPUTPIN))) 
			{ //wait for an high input (non blocking)
				timeoutcounter++;
				if(timeoutcounter > DHT_TIMEOUT) 
				{
					return -1; //timeout
     858:	8f ef       	ldi	r24, 0xFF	; 255
     85a:	03 c0       	rjmp	.+6      	; 0x862 <__stack+0x3>
			while(DHT_PIN & (1<<DHT_INPUTPIN)) 
			{ //wait until input get low (non blocking)
				timeoutcounter++;
				if(timeoutcounter > DHT_TIMEOUT) 
				{
					return -1; //timeout
     85c:	8f ef       	ldi	r24, 0xFF	; 255
     85e:	01 c0       	rjmp	.+2      	; 0x862 <__stack+0x3>
		*humidity = (float)(rawhumidity)/10.0;
		#endif
		return 0;
	}

	return -1;
     860:	8f ef       	ldi	r24, 0xFF	; 255
}
     862:	0f 90       	pop	r0
     864:	0f 90       	pop	r0
     866:	0f 90       	pop	r0
     868:	0f 90       	pop	r0
     86a:	0f 90       	pop	r0
     86c:	df 91       	pop	r29
     86e:	cf 91       	pop	r28
     870:	1f 91       	pop	r17
     872:	0f 91       	pop	r16
     874:	ff 90       	pop	r15
     876:	ef 90       	pop	r14
     878:	df 90       	pop	r13
     87a:	cf 90       	pop	r12
     87c:	bf 90       	pop	r11
     87e:	9f 90       	pop	r9
     880:	8f 90       	pop	r8
     882:	7f 90       	pop	r7
     884:	6f 90       	pop	r6
     886:	08 95       	ret

00000888 <dht_gettemperaturehumidity>:
{
#elif DHT_FLOAT == 0
int8_t dht_gettemperaturehumidity(int8_t *temperature, int8_t *humidity) 
{
#endif
	return dht_getdata(temperature, humidity);
     888:	0e 94 59 03 	call	0x6b2	; 0x6b2 <dht_getdata>
}
     88c:	08 95       	ret

0000088e <DS18X20_meas_to_cel>:


//--------//--------//--------//--------//--------//--------//--------//--------//--------
uint8_t DS18X20_meas_to_cel( uint8_t fc, uint8_t *sp,
	uint8_t* subzero, uint8_t* cel, uint8_t* cel_frac_bits)
{
     88e:	0f 93       	push	r16
     890:	1f 93       	push	r17
     892:	cf 93       	push	r28
     894:	df 93       	push	r29
     896:	cd b7       	in	r28, 0x3d	; 61
     898:	de b7       	in	r29, 0x3e	; 62
     89a:	60 97       	sbiw	r28, 0x10	; 16
     89c:	0f b6       	in	r0, 0x3f	; 63
     89e:	f8 94       	cli
     8a0:	de bf       	out	0x3e, r29	; 62
     8a2:	0f be       	out	0x3f, r0	; 63
     8a4:	cd bf       	out	0x3d, r28	; 61
	uint16_t meas;
	uint8_t  i;
	uint8_t t_tab1[16] = {0,1,1,2,2,3,4,4,5,6,6,7,7,8,9,9};
     8a6:	90 e1       	ldi	r25, 0x10	; 16
     8a8:	e0 e6       	ldi	r30, 0x60	; 96
     8aa:	f0 e0       	ldi	r31, 0x00	; 0
     8ac:	de 01       	movw	r26, r28
     8ae:	11 96       	adiw	r26, 0x01	; 1
     8b0:	01 90       	ld	r0, Z+
     8b2:	0d 92       	st	X+, r0
     8b4:	9a 95       	dec	r25
     8b6:	e1 f7       	brne	.-8      	; 0x8b0 <DS18X20_meas_to_cel+0x22>

	meas = sp[0];  // LSB
     8b8:	db 01       	movw	r26, r22
     8ba:	ec 91       	ld	r30, X
	meas |= ((uint16_t)sp[1])<<8; // MSB
     8bc:	11 96       	adiw	r26, 0x01	; 1
     8be:	9c 91       	ld	r25, X
     8c0:	11 97       	sbiw	r26, 0x01	; 1
     8c2:	f0 e0       	ldi	r31, 0x00	; 0
     8c4:	f9 2b       	or	r31, r25
	//meas = 0xff5e; meas = 0xfe6f;

	//  only work on 12bit-base
	if( fc == DS18S20_ID ) 
     8c6:	80 31       	cpi	r24, 0x10	; 16
     8c8:	79 f4       	brne	.+30     	; 0x8e8 <DS18X20_meas_to_cel+0x5a>
	{ // 9 -> 12 bit if 18S20
		/* Extended measurements for DS18S20 contributed by Carsten Foss */
		meas &= (uint16_t) 0xfffe;	// Discard LSB , needed for later extended precicion calc
     8ca:	ee 7f       	andi	r30, 0xFE	; 254
		meas <<= 3;					// Convert to 12-bit , now degrees are in 1/16 degrees units
     8cc:	ee 0f       	add	r30, r30
     8ce:	ff 1f       	adc	r31, r31
     8d0:	ee 0f       	add	r30, r30
     8d2:	ff 1f       	adc	r31, r31
     8d4:	ee 0f       	add	r30, r30
     8d6:	ff 1f       	adc	r31, r31
		meas += (16 - sp[6]) - 4;	// Add the compensation , and remember to subtract 0.25 degree (4/16)
     8d8:	16 96       	adiw	r26, 0x06	; 6
     8da:	9c 91       	ld	r25, X
     8dc:	ac e0       	ldi	r26, 0x0C	; 12
     8de:	b0 e0       	ldi	r27, 0x00	; 0
     8e0:	a9 1b       	sub	r26, r25
     8e2:	b1 09       	sbc	r27, r1
     8e4:	ea 0f       	add	r30, r26
     8e6:	fb 1f       	adc	r31, r27
	}

	// check for negative
	if ( meas & 0x8000 )  
     8e8:	ff 23       	and	r31, r31
     8ea:	3c f4       	brge	.+14     	; 0x8fa <DS18X20_meas_to_cel+0x6c>
	{
		*subzero=1;      // mark negative
     8ec:	91 e0       	ldi	r25, 0x01	; 1
     8ee:	da 01       	movw	r26, r20
     8f0:	9c 93       	st	X, r25
		meas ^= 0xffff;  // convert to positive => (twos complement)++
		meas++;
     8f2:	f1 95       	neg	r31
     8f4:	e1 95       	neg	r30
     8f6:	f1 09       	sbc	r31, r1
     8f8:	02 c0       	rjmp	.+4      	; 0x8fe <DS18X20_meas_to_cel+0x70>
	}
	else *subzero=0;
     8fa:	da 01       	movw	r26, r20
     8fc:	1c 92       	st	X, r1

	// clear undefined bits for B != 12bit
	if ( fc == DS18B20_ID ) 
     8fe:	88 32       	cpi	r24, 0x28	; 40
     900:	81 f4       	brne	.+32     	; 0x922 <DS18X20_meas_to_cel+0x94>
	{ // check resolution 18B20
		i = sp[DS18B20_CONF_REG];
     902:	db 01       	movw	r26, r22
     904:	14 96       	adiw	r26, 0x04	; 4
     906:	8c 91       	ld	r24, X
		if ( (i & DS18B20_12_BIT) == DS18B20_12_BIT ) ;
     908:	98 2f       	mov	r25, r24
     90a:	90 76       	andi	r25, 0x60	; 96
     90c:	90 36       	cpi	r25, 0x60	; 96
     90e:	49 f0       	breq	.+18     	; 0x922 <DS18X20_meas_to_cel+0x94>
		else if ( (i & DS18B20_11_BIT) == DS18B20_11_BIT )
     910:	86 ff       	sbrs	r24, 6
     912:	02 c0       	rjmp	.+4      	; 0x918 <DS18X20_meas_to_cel+0x8a>
			meas &= ~(DS18B20_11_BIT_UNDF);
     914:	ee 7f       	andi	r30, 0xFE	; 254
     916:	05 c0       	rjmp	.+10     	; 0x922 <DS18X20_meas_to_cel+0x94>
		else if ( (i & DS18B20_10_BIT) == DS18B20_10_BIT )
     918:	85 ff       	sbrs	r24, 5
     91a:	02 c0       	rjmp	.+4      	; 0x920 <DS18X20_meas_to_cel+0x92>
			meas &= ~(DS18B20_10_BIT_UNDF);
     91c:	ec 7f       	andi	r30, 0xFC	; 252
     91e:	01 c0       	rjmp	.+2      	; 0x922 <DS18X20_meas_to_cel+0x94>
		else 
		{ // if ( (i & DS18B20_9_BIT) == DS18B20_9_BIT ) {
			meas &= ~(DS18B20_9_BIT_UNDF);
     920:	e8 7f       	andi	r30, 0xF8	; 248
		}
	}

	*cel  = (uint8_t)(meas >> 4);
     922:	cf 01       	movw	r24, r30
     924:	92 95       	swap	r25
     926:	82 95       	swap	r24
     928:	8f 70       	andi	r24, 0x0F	; 15
     92a:	89 27       	eor	r24, r25
     92c:	9f 70       	andi	r25, 0x0F	; 15
     92e:	89 27       	eor	r24, r25
     930:	d9 01       	movw	r26, r18
     932:	8c 93       	st	X, r24
	*cel_frac_bits = t_tab1[(uint8_t)(meas & 0x000F)]    ;
     934:	ef 70       	andi	r30, 0x0F	; 15
     936:	ff 27       	eor	r31, r31
     938:	ec 0f       	add	r30, r28
     93a:	fd 1f       	adc	r31, r29
     93c:	81 81       	ldd	r24, Z+1	; 0x01
     93e:	f8 01       	movw	r30, r16
     940:	80 83       	st	Z, r24


	return DS18X20_OK;
}
     942:	80 e0       	ldi	r24, 0x00	; 0
     944:	60 96       	adiw	r28, 0x10	; 16
     946:	0f b6       	in	r0, 0x3f	; 63
     948:	f8 94       	cli
     94a:	de bf       	out	0x3e, r29	; 62
     94c:	0f be       	out	0x3f, r0	; 63
     94e:	cd bf       	out	0x3d, r28	; 61
     950:	df 91       	pop	r29
     952:	cf 91       	pop	r28
     954:	1f 91       	pop	r17
     956:	0f 91       	pop	r16
     958:	08 95       	ret

0000095a <DS18X20_find_sensor>:
/* find DS18X20 Sensors on 1-Wire-Bus
   input/ouput: diff is the result of the last rom-search
   output: id is the rom-code of the sensor found */
//--------//--------//--------//--------//--------//--------//--------//--------//--------
void DS18X20_find_sensor(uint8_t *diff, uint8_t id[])
{
     95a:	0f 93       	push	r16
     95c:	1f 93       	push	r17
     95e:	cf 93       	push	r28
     960:	df 93       	push	r29
     962:	ec 01       	movw	r28, r24
     964:	8b 01       	movw	r16, r22
	for (;;) 
	{
		*diff = ow_rom_search( *diff, &id[0] );
     966:	b8 01       	movw	r22, r16
     968:	88 81       	ld	r24, Y
     96a:	0e 94 f8 0a 	call	0x15f0	; 0x15f0 <ow_rom_search>
     96e:	88 83       	st	Y, r24
		
		if ( *diff==OW_PRESENCE_ERR || *diff==OW_DATA_ERR ||
     970:	81 50       	subi	r24, 0x01	; 1
     972:	8d 3f       	cpi	r24, 0xFD	; 253
     974:	30 f4       	brcc	.+12     	; 0x982 <DS18X20_find_sensor+0x28>
		  *diff == OW_LAST_DEVICE ) return;
		  
		if ( id[0] == DS18B20_ID || id[0] == DS18S20_ID ) return;
     976:	f8 01       	movw	r30, r16
     978:	90 81       	ld	r25, Z
     97a:	98 32       	cpi	r25, 0x28	; 40
     97c:	11 f0       	breq	.+4      	; 0x982 <DS18X20_find_sensor+0x28>
     97e:	90 31       	cpi	r25, 0x10	; 16
     980:	91 f7       	brne	.-28     	; 0x966 <DS18X20_find_sensor+0xc>
	}
}
     982:	df 91       	pop	r29
     984:	cf 91       	pop	r28
     986:	1f 91       	pop	r17
     988:	0f 91       	pop	r16
     98a:	08 95       	ret

0000098c <search_sensors>:


//--------//--------//--------//--------//--------//--------//--------//--------//--------
uint8_t search_sensors(void)
{
     98c:	df 92       	push	r13
     98e:	ef 92       	push	r14
     990:	ff 92       	push	r15
     992:	0f 93       	push	r16
     994:	1f 93       	push	r17
     996:	cf 93       	push	r28
     998:	df 93       	push	r29
     99a:	cd b7       	in	r28, 0x3d	; 61
     99c:	de b7       	in	r29, 0x3e	; 62
     99e:	29 97       	sbiw	r28, 0x09	; 9
     9a0:	0f b6       	in	r0, 0x3f	; 63
     9a2:	f8 94       	cli
     9a4:	de bf       	out	0x3e, r29	; 62
     9a6:	0f be       	out	0x3f, r0	; 63
     9a8:	cd bf       	out	0x3d, r28	; 61
	uint8_t id[OW_ROMCODE_SIZE];
	uint8_t diff, nSensors;

	nSensors = 0;

	for( diff = OW_SEARCH_FIRST;
     9aa:	8f ef       	ldi	r24, 0xFF	; 255
     9ac:	89 87       	std	Y+9, r24	; 0x09
     9ae:	0f 2e       	mov	r0, r31
     9b0:	fe eb       	ldi	r31, 0xBE	; 190
     9b2:	ef 2e       	mov	r14, r31
     9b4:	f0 e0       	ldi	r31, 0x00	; 0
     9b6:	ff 2e       	mov	r15, r31
     9b8:	f0 2d       	mov	r31, r0
     9ba:	d1 2c       	mov	r13, r1
		diff != OW_LAST_DEVICE && nSensors < MAXSENSORS ; )
	{
		DS18X20_find_sensor( &diff, &id[0] );
     9bc:	8e 01       	movw	r16, r28
     9be:	07 5f       	subi	r16, 0xF7	; 247
     9c0:	1f 4f       	sbci	r17, 0xFF	; 255
     9c2:	be 01       	movw	r22, r28
     9c4:	6f 5f       	subi	r22, 0xFF	; 255
     9c6:	7f 4f       	sbci	r23, 0xFF	; 255
     9c8:	c8 01       	movw	r24, r16
     9ca:	0e 94 ad 04 	call	0x95a	; 0x95a <DS18X20_find_sensor>
		if( diff == OW_PRESENCE_ERR ) 
		{
			break;
		}

		if( diff == OW_DATA_ERR ) 
     9ce:	99 85       	ldd	r25, Y+9	; 0x09
     9d0:	9e 5f       	subi	r25, 0xFE	; 254
     9d2:	92 30       	cpi	r25, 0x02	; 2
     9d4:	90 f0       	brcs	.+36     	; 0x9fa <search_sensors+0x6e>
     9d6:	fe 01       	movw	r30, r28
     9d8:	31 96       	adiw	r30, 0x01	; 1
     9da:	d7 01       	movw	r26, r14
		{
			break;
		}

		for (i=0;i<OW_ROMCODE_SIZE;i++) gSensorIDs[nSensors][i]=id[i];
     9dc:	91 91       	ld	r25, Z+
     9de:	9d 93       	st	X+, r25
     9e0:	e0 17       	cp	r30, r16
     9e2:	f1 07       	cpc	r31, r17
     9e4:	d9 f7       	brne	.-10     	; 0x9dc <search_sensors+0x50>

		nSensors++;
     9e6:	d3 94       	inc	r13
	uint8_t id[OW_ROMCODE_SIZE];
	uint8_t diff, nSensors;

	nSensors = 0;

	for( diff = OW_SEARCH_FIRST;
     9e8:	89 85       	ldd	r24, Y+9	; 0x09
     9ea:	88 23       	and	r24, r24
     9ec:	31 f0       	breq	.+12     	; 0x9fa <search_sensors+0x6e>
     9ee:	88 e0       	ldi	r24, 0x08	; 8
     9f0:	e8 0e       	add	r14, r24
     9f2:	f1 1c       	adc	r15, r1
		diff != OW_LAST_DEVICE && nSensors < MAXSENSORS ; )
     9f4:	84 e0       	ldi	r24, 0x04	; 4
     9f6:	d8 12       	cpse	r13, r24
     9f8:	e4 cf       	rjmp	.-56     	; 0x9c2 <search_sensors+0x36>

		nSensors++;
	}

	return nSensors;
}
     9fa:	8d 2d       	mov	r24, r13
     9fc:	29 96       	adiw	r28, 0x09	; 9
     9fe:	0f b6       	in	r0, 0x3f	; 63
     a00:	f8 94       	cli
     a02:	de bf       	out	0x3e, r29	; 62
     a04:	0f be       	out	0x3f, r0	; 63
     a06:	cd bf       	out	0x3d, r28	; 61
     a08:	df 91       	pop	r29
     a0a:	cf 91       	pop	r28
     a0c:	1f 91       	pop	r17
     a0e:	0f 91       	pop	r16
     a10:	ff 90       	pop	r15
     a12:	ef 90       	pop	r14
     a14:	df 90       	pop	r13
     a16:	08 95       	ret

00000a18 <DS18X20_start_meas>:

/* start measurement (CONVERT_T) for all sensors if input id==NULL
   or for single sensor. then id is the rom-code */
//--------//--------//--------//--------//--------//--------//--------//--------//--------
uint8_t DS18X20_start_meas( uint8_t with_power_extern, uint8_t id[])
{
     a18:	0f 93       	push	r16
     a1a:	1f 93       	push	r17
     a1c:	cf 93       	push	r28
     a1e:	c8 2f       	mov	r28, r24
     a20:	8b 01       	movw	r16, r22
	ow_reset(); //**
     a22:	0e 94 b5 0a 	call	0x156a	; 0x156a <ow_reset>
	if( ow_input_pin_state() ) 
     a26:	0e 94 af 0a 	call	0x155e	; 0x155e <ow_input_pin_state>
     a2a:	88 23       	and	r24, r24
     a2c:	51 f0       	breq	.+20     	; 0xa42 <DS18X20_start_meas+0x2a>
	{ // only send if bus is "idle" = high
		ow_command( DS18X20_CONVERT_T, id );
     a2e:	b8 01       	movw	r22, r16
     a30:	84 e4       	ldi	r24, 0x44	; 68
     a32:	0e 94 52 0b 	call	0x16a4	; 0x16a4 <ow_command>
		if (with_power_extern != DS18X20_POWER_EXTERN)
     a36:	c1 30       	cpi	r28, 0x01	; 1
     a38:	31 f0       	breq	.+12     	; 0xa46 <DS18X20_start_meas+0x2e>
			ow_parasite_enable();
     a3a:	0e 94 b2 0a 	call	0x1564	; 0x1564 <ow_parasite_enable>
		return DS18X20_OK;
     a3e:	80 e0       	ldi	r24, 0x00	; 0
     a40:	03 c0       	rjmp	.+6      	; 0xa48 <DS18X20_start_meas+0x30>
	}
	else 
	{
		return DS18X20_START_FAIL;
     a42:	82 e0       	ldi	r24, 0x02	; 2
     a44:	01 c0       	rjmp	.+2      	; 0xa48 <DS18X20_start_meas+0x30>
	if( ow_input_pin_state() ) 
	{ // only send if bus is "idle" = high
		ow_command( DS18X20_CONVERT_T, id );
		if (with_power_extern != DS18X20_POWER_EXTERN)
			ow_parasite_enable();
		return DS18X20_OK;
     a46:	80 e0       	ldi	r24, 0x00	; 0
	}
	else 
	{
		return DS18X20_START_FAIL;
	}
}
     a48:	cf 91       	pop	r28
     a4a:	1f 91       	pop	r17
     a4c:	0f 91       	pop	r16
     a4e:	08 95       	ret

00000a50 <DS18X20_read_meas_single>:
   in millicelsius*0.1
   i.e.: subzero=1, cel=18, millicel=5000 = -18,5000°C */
//--------//--------//--------//--------//--------//--------//--------//--------//--------
uint8_t DS18X20_read_meas_single(uint8_t familycode, uint8_t *subzero, uint8_t *cel, 
								 uint8_t *cel_frac_bits)
{
     a50:	7f 92       	push	r7
     a52:	8f 92       	push	r8
     a54:	9f 92       	push	r9
     a56:	af 92       	push	r10
     a58:	bf 92       	push	r11
     a5a:	cf 92       	push	r12
     a5c:	df 92       	push	r13
     a5e:	ef 92       	push	r14
     a60:	ff 92       	push	r15
     a62:	0f 93       	push	r16
     a64:	1f 93       	push	r17
     a66:	cf 93       	push	r28
     a68:	df 93       	push	r29
     a6a:	cd b7       	in	r28, 0x3d	; 61
     a6c:	de b7       	in	r29, 0x3e	; 62
     a6e:	29 97       	sbiw	r28, 0x09	; 9
     a70:	0f b6       	in	r0, 0x3f	; 63
     a72:	f8 94       	cli
     a74:	de bf       	out	0x3e, r29	; 62
     a76:	0f be       	out	0x3f, r0	; 63
     a78:	cd bf       	out	0x3d, r28	; 61
     a7a:	78 2e       	mov	r7, r24
     a7c:	6b 01       	movw	r12, r22
     a7e:	5a 01       	movw	r10, r20
     a80:	49 01       	movw	r8, r18
	uint8_t i;
	uint8_t sp[DS18X20_SP_SIZE];

	ow_command(DS18X20_READ, NULL);
     a82:	60 e0       	ldi	r22, 0x00	; 0
     a84:	70 e0       	ldi	r23, 0x00	; 0
     a86:	8e eb       	ldi	r24, 0xBE	; 190
     a88:	0e 94 52 0b 	call	0x16a4	; 0x16a4 <ow_command>
     a8c:	8e 01       	movw	r16, r28
     a8e:	0f 5f       	subi	r16, 0xFF	; 255
     a90:	1f 4f       	sbci	r17, 0xFF	; 255
     a92:	7e 01       	movw	r14, r28
     a94:	8a e0       	ldi	r24, 0x0A	; 10
     a96:	e8 0e       	add	r14, r24
     a98:	f1 1c       	adc	r15, r1
	
	for ( i=0 ; i< DS18X20_SP_SIZE; i++ ) sp[i]=ow_byte_rd();
     a9a:	0e 94 f4 0a 	call	0x15e8	; 0x15e8 <ow_byte_rd>
     a9e:	f8 01       	movw	r30, r16
     aa0:	81 93       	st	Z+, r24
     aa2:	8f 01       	movw	r16, r30
     aa4:	ee 15       	cp	r30, r14
     aa6:	ff 05       	cpc	r31, r15
     aa8:	c1 f7       	brne	.-16     	; 0xa9a <DS18X20_read_meas_single+0x4a>
	
	if ( crc8( &sp[0], DS18X20_SP_SIZE ) )
     aaa:	69 e0       	ldi	r22, 0x09	; 9
     aac:	70 e0       	ldi	r23, 0x00	; 0
     aae:	ce 01       	movw	r24, r28
     ab0:	01 96       	adiw	r24, 0x01	; 1
     ab2:	0e 94 3c 03 	call	0x678	; 0x678 <crc8>
     ab6:	f8 2e       	mov	r15, r24
     ab8:	81 11       	cpse	r24, r1
     aba:	0a c0       	rjmp	.+20     	; 0xad0 <DS18X20_read_meas_single+0x80>
	{
		return DS18X20_ERROR_CRC;
	}
	
	DS18X20_meas_to_cel(familycode, sp, subzero, cel, cel_frac_bits);
     abc:	84 01       	movw	r16, r8
     abe:	95 01       	movw	r18, r10
     ac0:	a6 01       	movw	r20, r12
     ac2:	be 01       	movw	r22, r28
     ac4:	6f 5f       	subi	r22, 0xFF	; 255
     ac6:	7f 4f       	sbci	r23, 0xFF	; 255
     ac8:	87 2d       	mov	r24, r7
     aca:	0e 94 47 04 	call	0x88e	; 0x88e <DS18X20_meas_to_cel>


	return DS18X20_OK;
     ace:	04 c0       	rjmp	.+8      	; 0xad8 <DS18X20_read_meas_single+0x88>
	
	for ( i=0 ; i< DS18X20_SP_SIZE; i++ ) sp[i]=ow_byte_rd();
	
	if ( crc8( &sp[0], DS18X20_SP_SIZE ) )
	{
		return DS18X20_ERROR_CRC;
     ad0:	0f 2e       	mov	r0, r31
     ad2:	f3 e0       	ldi	r31, 0x03	; 3
     ad4:	ff 2e       	mov	r15, r31
     ad6:	f0 2d       	mov	r31, r0
	
	DS18X20_meas_to_cel(familycode, sp, subzero, cel, cel_frac_bits);


	return DS18X20_OK;
}
     ad8:	8f 2d       	mov	r24, r15
     ada:	29 96       	adiw	r28, 0x09	; 9
     adc:	0f b6       	in	r0, 0x3f	; 63
     ade:	f8 94       	cli
     ae0:	de bf       	out	0x3e, r29	; 62
     ae2:	0f be       	out	0x3f, r0	; 63
     ae4:	cd bf       	out	0x3d, r28	; 61
     ae6:	df 91       	pop	r29
     ae8:	cf 91       	pop	r28
     aea:	1f 91       	pop	r17
     aec:	0f 91       	pop	r16
     aee:	ff 90       	pop	r15
     af0:	ef 90       	pop	r14
     af2:	df 90       	pop	r13
     af4:	cf 90       	pop	r12
     af6:	bf 90       	pop	r11
     af8:	af 90       	pop	r10
     afa:	9f 90       	pop	r9
     afc:	8f 90       	pop	r8
     afe:	7f 90       	pop	r7
     b00:	08 95       	ret

00000b02 <i2cSetBitrate>:
//--------//--------//--------//--------//--------//--------//--------//--------//--------
void i2cSetBitrate(uint8_t SCL_CLOCK)
{
  /* initialize TWI clock: 100 kHz clock, TWPS = 0 => prescaler = 1 */
  
  TWSR = 0;									/* no prescaler */
     b02:	11 b8       	out	0x01, r1	; 1
  TWBR = ((F_CPU/(SCL_CLOCK*1000))-16)/2;  /* must be > 10 for stable operation */
     b04:	48 ee       	ldi	r20, 0xE8	; 232
     b06:	53 e0       	ldi	r21, 0x03	; 3
     b08:	28 2f       	mov	r18, r24
     b0a:	24 9f       	mul	r18, r20
     b0c:	c0 01       	movw	r24, r0
     b0e:	25 9f       	mul	r18, r21
     b10:	90 0d       	add	r25, r0
     b12:	11 24       	eor	r1, r1
     b14:	9c 01       	movw	r18, r24
     b16:	99 0f       	add	r25, r25
     b18:	44 0b       	sbc	r20, r20
     b1a:	55 0b       	sbc	r21, r21
     b1c:	60 e0       	ldi	r22, 0x00	; 0
     b1e:	70 ec       	ldi	r23, 0xC0	; 192
     b20:	88 ea       	ldi	r24, 0xA8	; 168
     b22:	90 e0       	ldi	r25, 0x00	; 0
     b24:	0e 94 d5 0d 	call	0x1baa	; 0x1baa <__divmodsi4>
     b28:	ba 01       	movw	r22, r20
     b2a:	a9 01       	movw	r20, r18
     b2c:	40 51       	subi	r20, 0x10	; 16
     b2e:	51 09       	sbc	r21, r1
     b30:	61 09       	sbc	r22, r1
     b32:	71 09       	sbc	r23, r1
     b34:	db 01       	movw	r26, r22
     b36:	ca 01       	movw	r24, r20
     b38:	1a f4       	brpl	.+6      	; 0xb40 <i2cSetBitrate+0x3e>
     b3a:	01 96       	adiw	r24, 0x01	; 1
     b3c:	a1 1d       	adc	r26, r1
     b3e:	b1 1d       	adc	r27, r1
     b40:	b5 95       	asr	r27
     b42:	a7 95       	ror	r26
     b44:	97 95       	ror	r25
     b46:	87 95       	ror	r24
     b48:	80 b9       	out	0x00, r24	; 0
     b4a:	08 95       	ret

00000b4c <TWI_start>:


//--------//--------//--------//--------//--------//--------//--------//--------//--------
void TWI_start(void)
{
	TWCR = (1<<TWINT) | (1<<TWEN) | (1<<TWSTA);
     b4c:	84 ea       	ldi	r24, 0xA4	; 164
     b4e:	86 bf       	out	0x36, r24	; 54
	
	while (!(TWCR & (1<<TWINT)));
     b50:	06 b6       	in	r0, 0x36	; 54
     b52:	07 fe       	sbrs	r0, 7
     b54:	fd cf       	rjmp	.-6      	; 0xb50 <TWI_start+0x4>
}
     b56:	08 95       	ret

00000b58 <TWI_stop>:


//--------//--------//--------//--------//--------//--------//--------//--------//--------
void TWI_stop(void)
{
	TWCR = (1<<TWINT) | (1<<TWEN) | (1<<TWSTO);
     b58:	84 e9       	ldi	r24, 0x94	; 148
     b5a:	86 bf       	out	0x36, r24	; 54
	
	while (!(TWCR & (1<<TWSTO)));
     b5c:	06 b6       	in	r0, 0x36	; 54
     b5e:	04 fe       	sbrs	r0, 4
     b60:	fd cf       	rjmp	.-6      	; 0xb5c <TWI_stop+0x4>
}
     b62:	08 95       	ret

00000b64 <TWI_write>:


//--------//--------//--------//--------//--------//--------//--------//--------//--------
void TWI_write(uint8_t bajt)
{
	TWDR = bajt;
     b64:	83 b9       	out	0x03, r24	; 3
	TWCR = (1<<TWINT) | (1<<TWEN);
     b66:	84 e8       	ldi	r24, 0x84	; 132
     b68:	86 bf       	out	0x36, r24	; 54
	
	while (!(TWCR & (1<<TWINT)));
     b6a:	06 b6       	in	r0, 0x36	; 54
     b6c:	07 fe       	sbrs	r0, 7
     b6e:	fd cf       	rjmp	.-6      	; 0xb6a <TWI_write+0x6>
}
     b70:	08 95       	ret

00000b72 <TWI_read>:


//--------//--------//--------//--------//--------//--------//--------//--------//--------
uint8_t TWI_read(uint8_t ack)
{
	TWCR = (1<<TWINT) | (ack<<TWEA) | (1<<TWEN);
     b72:	20 e4       	ldi	r18, 0x40	; 64
     b74:	82 9f       	mul	r24, r18
     b76:	c0 01       	movw	r24, r0
     b78:	11 24       	eor	r1, r1
     b7a:	84 68       	ori	r24, 0x84	; 132
     b7c:	86 bf       	out	0x36, r24	; 54
	
	while (!(TWCR & (1<<TWINT)));
     b7e:	06 b6       	in	r0, 0x36	; 54
     b80:	07 fe       	sbrs	r0, 7
     b82:	fd cf       	rjmp	.-6      	; 0xb7e <TWI_read+0xc>
	
	return TWDR;
     b84:	83 b1       	in	r24, 0x03	; 3
}
     b86:	08 95       	ret

00000b88 <TWI_write_buf>:


//--------//--------//--------//--------//--------//--------//--------//--------//--------
void TWI_write_buf(uint8_t SLA, uint8_t adr, uint8_t len, uint8_t* buf)
{
     b88:	ef 92       	push	r14
     b8a:	ff 92       	push	r15
     b8c:	0f 93       	push	r16
     b8e:	1f 93       	push	r17
     b90:	cf 93       	push	r28
     b92:	df 93       	push	r29
     b94:	18 2f       	mov	r17, r24
     b96:	d6 2f       	mov	r29, r22
     b98:	c4 2f       	mov	r28, r20
     b9a:	79 01       	movw	r14, r18
	TWI_start();
     b9c:	0e 94 a6 05 	call	0xb4c	; 0xb4c <TWI_start>
	TWI_write(SLA);
     ba0:	81 2f       	mov	r24, r17
     ba2:	0e 94 b2 05 	call	0xb64	; 0xb64 <TWI_write>
	TWI_write(adr);
     ba6:	8d 2f       	mov	r24, r29
     ba8:	0e 94 b2 05 	call	0xb64	; 0xb64 <TWI_write>
	while (len--) TWI_write(*buf++);
     bac:	8f ef       	ldi	r24, 0xFF	; 255
     bae:	8c 0f       	add	r24, r28
     bb0:	cc 23       	and	r28, r28
     bb2:	69 f0       	breq	.+26     	; 0xbce <TWI_write_buf+0x46>
     bb4:	e7 01       	movw	r28, r14
     bb6:	08 2f       	mov	r16, r24
     bb8:	10 e0       	ldi	r17, 0x00	; 0
     bba:	0f 5f       	subi	r16, 0xFF	; 255
     bbc:	1f 4f       	sbci	r17, 0xFF	; 255
     bbe:	0e 0d       	add	r16, r14
     bc0:	1f 1d       	adc	r17, r15
     bc2:	89 91       	ld	r24, Y+
     bc4:	0e 94 b2 05 	call	0xb64	; 0xb64 <TWI_write>
     bc8:	c0 17       	cp	r28, r16
     bca:	d1 07       	cpc	r29, r17
     bcc:	d1 f7       	brne	.-12     	; 0xbc2 <TWI_write_buf+0x3a>
	TWI_stop();
     bce:	0e 94 ac 05 	call	0xb58	; 0xb58 <TWI_stop>
}
     bd2:	df 91       	pop	r29
     bd4:	cf 91       	pop	r28
     bd6:	1f 91       	pop	r17
     bd8:	0f 91       	pop	r16
     bda:	ff 90       	pop	r15
     bdc:	ef 90       	pop	r14
     bde:	08 95       	ret

00000be0 <TWI_read_buf>:


//--------//--------//--------//--------//--------//--------//--------//--------//--------
void TWI_read_buf(uint8_t SLA, uint8_t adr, uint8_t len, uint8_t* buf)
{
     be0:	ef 92       	push	r14
     be2:	ff 92       	push	r15
     be4:	0f 93       	push	r16
     be6:	1f 93       	push	r17
     be8:	cf 93       	push	r28
     bea:	df 93       	push	r29
     bec:	d8 2f       	mov	r29, r24
     bee:	16 2f       	mov	r17, r22
     bf0:	c4 2f       	mov	r28, r20
     bf2:	e2 2e       	mov	r14, r18
     bf4:	f3 2e       	mov	r15, r19
	TWI_start();
     bf6:	0e 94 a6 05 	call	0xb4c	; 0xb4c <TWI_start>
	TWI_write(SLA);
     bfa:	8d 2f       	mov	r24, r29
     bfc:	0e 94 b2 05 	call	0xb64	; 0xb64 <TWI_write>
	TWI_write(adr);
     c00:	81 2f       	mov	r24, r17
     c02:	0e 94 b2 05 	call	0xb64	; 0xb64 <TWI_write>
	TWI_start();
     c06:	0e 94 a6 05 	call	0xb4c	; 0xb4c <TWI_start>
	TWI_write(SLA + 1);
     c0a:	81 e0       	ldi	r24, 0x01	; 1
     c0c:	8d 0f       	add	r24, r29
     c0e:	0e 94 b2 05 	call	0xb64	; 0xb64 <TWI_write>
	while (len--) *buf++ = TWI_read(len ? ACK : NACK);
     c12:	df ef       	ldi	r29, 0xFF	; 255
     c14:	dc 0f       	add	r29, r28
     c16:	cc 23       	and	r28, r28
     c18:	91 f0       	breq	.+36     	; 0xc3e <TWI_read_buf+0x5e>
     c1a:	0e 2d       	mov	r16, r14
     c1c:	1f 2d       	mov	r17, r15
     c1e:	ff 24       	eor	r15, r15
     c20:	f3 94       	inc	r15
     c22:	e1 2c       	mov	r14, r1
     c24:	cf 2d       	mov	r28, r15
     c26:	d1 11       	cpse	r29, r1
     c28:	01 c0       	rjmp	.+2      	; 0xc2c <TWI_read_buf+0x4c>
     c2a:	ce 2d       	mov	r28, r14
     c2c:	8c 2f       	mov	r24, r28
     c2e:	0e 94 b9 05 	call	0xb72	; 0xb72 <TWI_read>
     c32:	f8 01       	movw	r30, r16
     c34:	81 93       	st	Z+, r24
     c36:	8f 01       	movw	r16, r30
     c38:	d1 50       	subi	r29, 0x01	; 1
     c3a:	c1 11       	cpse	r28, r1
     c3c:	f3 cf       	rjmp	.-26     	; 0xc24 <TWI_read_buf+0x44>
	TWI_stop();
     c3e:	0e 94 ac 05 	call	0xb58	; 0xb58 <TWI_stop>
}
     c42:	df 91       	pop	r29
     c44:	cf 91       	pop	r28
     c46:	1f 91       	pop	r17
     c48:	0f 91       	pop	r16
     c4a:	ff 90       	pop	r15
     c4c:	ef 90       	pop	r14
     c4e:	08 95       	ret

00000c50 <lcd_send_4>:

// procedura wysyla 4 bity na wyswietlacz
//--------//--------//--------//--------//--------//--------//--------//--------//--------
void lcd_send_4(unsigned char b)
{
	set_lcd_en;
     c50:	c1 9a       	sbi	0x18, 1	; 24

	// wysterowanie poszczególnych linii danych

	if (b & 1)	set_lcd_d4;	else clr_lcd_d4;
     c52:	80 ff       	sbrs	r24, 0
     c54:	02 c0       	rjmp	.+4      	; 0xc5a <lcd_send_4+0xa>
     c56:	c4 9a       	sbi	0x18, 4	; 24
     c58:	01 c0       	rjmp	.+2      	; 0xc5c <lcd_send_4+0xc>
     c5a:	c4 98       	cbi	0x18, 4	; 24
	if (b & 2)	set_lcd_d5;	else clr_lcd_d5;
     c5c:	81 ff       	sbrs	r24, 1
     c5e:	02 c0       	rjmp	.+4      	; 0xc64 <lcd_send_4+0x14>
     c60:	c5 9a       	sbi	0x18, 5	; 24
     c62:	01 c0       	rjmp	.+2      	; 0xc66 <lcd_send_4+0x16>
     c64:	c5 98       	cbi	0x18, 5	; 24
	if (b & 4)	set_lcd_d6;	else clr_lcd_d6;
     c66:	82 ff       	sbrs	r24, 2
     c68:	02 c0       	rjmp	.+4      	; 0xc6e <lcd_send_4+0x1e>
     c6a:	c6 9a       	sbi	0x18, 6	; 24
     c6c:	01 c0       	rjmp	.+2      	; 0xc70 <lcd_send_4+0x20>
     c6e:	c6 98       	cbi	0x18, 6	; 24
	if (b & 8)	set_lcd_d7;	else clr_lcd_d7;
     c70:	83 ff       	sbrs	r24, 3
     c72:	02 c0       	rjmp	.+4      	; 0xc78 <lcd_send_4+0x28>
     c74:	c7 9a       	sbi	0x18, 7	; 24
     c76:	01 c0       	rjmp	.+2      	; 0xc7a <lcd_send_4+0x2a>
     c78:	c7 98       	cbi	0x18, 7	; 24
	#else
		//round up by default
		__ticks_dc = (uint32_t)(ceil(fabs(__tmp)));
	#endif

	__builtin_avr_delay_cycles(__ticks_dc);
     c7a:	84 e0       	ldi	r24, 0x04	; 4
     c7c:	8a 95       	dec	r24
     c7e:	f1 f7       	brne	.-4      	; 0xc7c <lcd_send_4+0x2c>
	
	_delay_us(1);   // min 230ns

	// zapis danych opadajacym zboczem EN
	clr_lcd_en;
     c80:	c1 98       	cbi	0x18, 1	; 24
     c82:	84 e0       	ldi	r24, 0x04	; 4
     c84:	8a 95       	dec	r24
     c86:	f1 f7       	brne	.-4      	; 0xc84 <lcd_send_4+0x34>
     c88:	08 95       	ret

00000c8a <lcd_send_8>:
}


//--------//--------//--------//--------//--------//--------//--------//--------//--------
void lcd_send_8(unsigned char b)
{
     c8a:	cf 93       	push	r28
     c8c:	c8 2f       	mov	r28, r24
	lcd_send_4(b>>4);  // najpierw czêœæ bardziej znacz¹ca
     c8e:	82 95       	swap	r24
     c90:	8f 70       	andi	r24, 0x0F	; 15
     c92:	0e 94 28 06 	call	0xc50	; 0xc50 <lcd_send_4>
	lcd_send_4(b);
     c96:	8c 2f       	mov	r24, r28
     c98:	0e 94 28 06 	call	0xc50	; 0xc50 <lcd_send_4>
}
     c9c:	cf 91       	pop	r28
     c9e:	08 95       	ret

00000ca0 <lcd_send_com>:


//--------//--------//--------//--------//--------//--------//--------//--------//--------
void lcd_send_com(unsigned char b)
{
	clr_lcd_rs;													// rs = 0  wysy³anie rozkazu
     ca0:	c0 98       	cbi	0x18, 0	; 24
	lcd_send_8(b);
     ca2:	0e 94 45 06 	call	0xc8a	; 0xc8a <lcd_send_8>
     ca6:	84 e1       	ldi	r24, 0x14	; 20
     ca8:	91 e0       	ldi	r25, 0x01	; 1
     caa:	01 97       	sbiw	r24, 0x01	; 1
     cac:	f1 f7       	brne	.-4      	; 0xcaa <lcd_send_com+0xa>
     cae:	00 00       	nop
     cb0:	08 95       	ret

00000cb2 <lcd_send_data>:


//--------//--------//--------//--------//--------//--------//--------//--------//--------
void lcd_send_data(unsigned char b)
{
	set_lcd_rs;													// rs = 1  wysy³anie danej (do pamiêci)
     cb2:	c0 9a       	sbi	0x18, 0	; 24
	lcd_send_8(b);
     cb4:	0e 94 45 06 	call	0xc8a	; 0xc8a <lcd_send_8>
     cb8:	84 e1       	ldi	r24, 0x14	; 20
     cba:	91 e0       	ldi	r25, 0x01	; 1
     cbc:	01 97       	sbiw	r24, 0x01	; 1
     cbe:	f1 f7       	brne	.-4      	; 0xcbc <lcd_send_data+0xa>
     cc0:	00 00       	nop
     cc2:	08 95       	ret

00000cc4 <lcd_init>:


//--------//--------//--------//--------//--------//--------//--------//--------//--------
void lcd_init(void)
{
	ddr_d4; ddr_d5; ddr_d6; ddr_d7; ddr_en; ddr_rs; ddr_light;	//kierunek portów = 1  (wyjscie)
     cc4:	bc 9a       	sbi	0x17, 4	; 23
     cc6:	bd 9a       	sbi	0x17, 5	; 23
     cc8:	be 9a       	sbi	0x17, 6	; 23
     cca:	bf 9a       	sbi	0x17, 7	; 23
     ccc:	b9 9a       	sbi	0x17, 1	; 23
     cce:	b8 9a       	sbi	0x17, 0	; 23
     cd0:	a7 9a       	sbi	0x14, 7	; 20
	#else
		//round up by default
		__ticks_dc = (uint32_t)(ceil(fabs(__tmp)));
	#endif

	__builtin_avr_delay_cycles(__ticks_dc);
     cd2:	8f ef       	ldi	r24, 0xFF	; 255
     cd4:	95 e3       	ldi	r25, 0x35	; 53
     cd6:	01 97       	sbiw	r24, 0x01	; 1
     cd8:	f1 f7       	brne	.-4      	; 0xcd6 <lcd_init+0x12>
     cda:	00 c0       	rjmp	.+0      	; 0xcdc <lcd_init+0x18>
     cdc:	00 00       	nop
	
	_delay_ms(5);
	lcd_send_4(3); _delay_ms(1); lcd_send_4(3); _delay_ms(1);	// prze³¹czanie na magistral 4 bit
     cde:	83 e0       	ldi	r24, 0x03	; 3
     ce0:	0e 94 28 06 	call	0xc50	; 0xc50 <lcd_send_4>
     ce4:	8c ec       	ldi	r24, 0xCC	; 204
     ce6:	9a e0       	ldi	r25, 0x0A	; 10
     ce8:	01 97       	sbiw	r24, 0x01	; 1
     cea:	f1 f7       	brne	.-4      	; 0xce8 <lcd_init+0x24>
     cec:	00 c0       	rjmp	.+0      	; 0xcee <lcd_init+0x2a>
     cee:	00 00       	nop
     cf0:	83 e0       	ldi	r24, 0x03	; 3
     cf2:	0e 94 28 06 	call	0xc50	; 0xc50 <lcd_send_4>
     cf6:	8c ec       	ldi	r24, 0xCC	; 204
     cf8:	9a e0       	ldi	r25, 0x0A	; 10
     cfa:	01 97       	sbiw	r24, 0x01	; 1
     cfc:	f1 f7       	brne	.-4      	; 0xcfa <lcd_init+0x36>
     cfe:	00 c0       	rjmp	.+0      	; 0xd00 <lcd_init+0x3c>
     d00:	00 00       	nop
	lcd_send_4(3); _delay_ms(1); lcd_send_4(2); _delay_ms(1);
     d02:	83 e0       	ldi	r24, 0x03	; 3
     d04:	0e 94 28 06 	call	0xc50	; 0xc50 <lcd_send_4>
     d08:	8c ec       	ldi	r24, 0xCC	; 204
     d0a:	9a e0       	ldi	r25, 0x0A	; 10
     d0c:	01 97       	sbiw	r24, 0x01	; 1
     d0e:	f1 f7       	brne	.-4      	; 0xd0c <lcd_init+0x48>
     d10:	00 c0       	rjmp	.+0      	; 0xd12 <lcd_init+0x4e>
     d12:	00 00       	nop
     d14:	82 e0       	ldi	r24, 0x02	; 2
     d16:	0e 94 28 06 	call	0xc50	; 0xc50 <lcd_send_4>
     d1a:	8c ec       	ldi	r24, 0xCC	; 204
     d1c:	9a e0       	ldi	r25, 0x0A	; 10
     d1e:	01 97       	sbiw	r24, 0x01	; 1
     d20:	f1 f7       	brne	.-4      	; 0xd1e <lcd_init+0x5a>
     d22:	00 c0       	rjmp	.+0      	; 0xd24 <lcd_init+0x60>
     d24:	00 00       	nop
	lcd_send_com(0x28); _delay_ms(1);							// szerokosc magistrali 4 bity,  2 linie
     d26:	88 e2       	ldi	r24, 0x28	; 40
     d28:	0e 94 50 06 	call	0xca0	; 0xca0 <lcd_send_com>
     d2c:	8c ec       	ldi	r24, 0xCC	; 204
     d2e:	9a e0       	ldi	r25, 0x0A	; 10
     d30:	01 97       	sbiw	r24, 0x01	; 1
     d32:	f1 f7       	brne	.-4      	; 0xd30 <lcd_init+0x6c>
     d34:	00 c0       	rjmp	.+0      	; 0xd36 <lcd_init+0x72>
     d36:	00 00       	nop
	lcd_send_com(0x01); _delay_ms(1);							// clear
     d38:	81 e0       	ldi	r24, 0x01	; 1
     d3a:	0e 94 50 06 	call	0xca0	; 0xca0 <lcd_send_com>
     d3e:	8c ec       	ldi	r24, 0xCC	; 204
     d40:	9a e0       	ldi	r25, 0x0A	; 10
     d42:	01 97       	sbiw	r24, 0x01	; 1
     d44:	f1 f7       	brne	.-4      	; 0xd42 <lcd_init+0x7e>
     d46:	00 c0       	rjmp	.+0      	; 0xd48 <lcd_init+0x84>
     d48:	00 00       	nop
	lcd_send_com(0x06); _delay_ms(1);							// inkrementacja DDRAM,
     d4a:	86 e0       	ldi	r24, 0x06	; 6
     d4c:	0e 94 50 06 	call	0xca0	; 0xca0 <lcd_send_com>
     d50:	8c ec       	ldi	r24, 0xCC	; 204
     d52:	9a e0       	ldi	r25, 0x0A	; 10
     d54:	01 97       	sbiw	r24, 0x01	; 1
     d56:	f1 f7       	brne	.-4      	; 0xd54 <lcd_init+0x90>
     d58:	00 c0       	rjmp	.+0      	; 0xd5a <lcd_init+0x96>
     d5a:	00 00       	nop
	lcd_send_com(0x0C); _delay_ms(1);							// w³acz, bez kursora i migania
     d5c:	8c e0       	ldi	r24, 0x0C	; 12
     d5e:	0e 94 50 06 	call	0xca0	; 0xca0 <lcd_send_com>
     d62:	8c ec       	ldi	r24, 0xCC	; 204
     d64:	9a e0       	ldi	r25, 0x0A	; 10
     d66:	01 97       	sbiw	r24, 0x01	; 1
     d68:	f1 f7       	brne	.-4      	; 0xd66 <lcd_init+0xa2>
     d6a:	00 c0       	rjmp	.+0      	; 0xd6c <lcd_init+0xa8>
     d6c:	00 00       	nop
     d6e:	08 95       	ret

00000d70 <lcd_clear>:


//--------//--------//--------//--------//--------//--------//--------//--------//--------
void lcd_clear(void)
{
	lcd_send_com(1);
     d70:	81 e0       	ldi	r24, 0x01	; 1
     d72:	0e 94 50 06 	call	0xca0	; 0xca0 <lcd_send_com>
     d76:	08 95       	ret

00000d78 <lcd_home>:


//--------//--------//--------//--------//--------//--------//--------//--------//--------
void lcd_home(void)
{
	lcd_send_com(2);
     d78:	82 e0       	ldi	r24, 0x02	; 2
     d7a:	0e 94 50 06 	call	0xca0	; 0xca0 <lcd_send_com>
     d7e:	89 e9       	ldi	r24, 0x99	; 153
     d80:	95 e1       	ldi	r25, 0x15	; 21
     d82:	01 97       	sbiw	r24, 0x01	; 1
     d84:	f1 f7       	brne	.-4      	; 0xd82 <lcd_home+0xa>
     d86:	00 c0       	rjmp	.+0      	; 0xd88 <lcd_home+0x10>
     d88:	08 95       	ret

00000d8a <lcd_gotoxy>:


//--------//--------//--------//--------//--------//--------//--------//--------//--------
void lcd_gotoxy(unsigned char x, unsigned char y)
{
	lcd_send_com( 128 |   ((y==1)? 64:0) | x  );
     d8a:	61 30       	cpi	r22, 0x01	; 1
     d8c:	11 f0       	breq	.+4      	; 0xd92 <lcd_gotoxy+0x8>
     d8e:	90 e8       	ldi	r25, 0x80	; 128
     d90:	01 c0       	rjmp	.+2      	; 0xd94 <lcd_gotoxy+0xa>
     d92:	90 ec       	ldi	r25, 0xC0	; 192
     d94:	89 2b       	or	r24, r25
     d96:	0e 94 50 06 	call	0xca0	; 0xca0 <lcd_send_com>
     d9a:	08 95       	ret

00000d9c <lcd_swrite>:
}


//--------//--------//--------//--------//--------//--------//--------//--------//--------
void lcd_swrite( char *s)
{int i=0;
     d9c:	0f 93       	push	r16
     d9e:	1f 93       	push	r17
     da0:	cf 93       	push	r28
     da2:	df 93       	push	r29
     da4:	fc 01       	movw	r30, r24
	while(s[i] && i<1000)  { lcd_send_data(s[i]);	++i; }
     da6:	80 81       	ld	r24, Z
     da8:	88 23       	and	r24, r24
     daa:	69 f0       	breq	.+26     	; 0xdc6 <lcd_swrite+0x2a>
     dac:	ef 01       	movw	r28, r30
     dae:	21 96       	adiw	r28, 0x01	; 1
     db0:	8f 01       	movw	r16, r30
     db2:	07 51       	subi	r16, 0x17	; 23
     db4:	1c 4f       	sbci	r17, 0xFC	; 252
     db6:	0e 94 59 06 	call	0xcb2	; 0xcb2 <lcd_send_data>
     dba:	89 91       	ld	r24, Y+
     dbc:	88 23       	and	r24, r24
     dbe:	19 f0       	breq	.+6      	; 0xdc6 <lcd_swrite+0x2a>
     dc0:	c0 17       	cp	r28, r16
     dc2:	d1 07       	cpc	r29, r17
     dc4:	c1 f7       	brne	.-16     	; 0xdb6 <lcd_swrite+0x1a>
}
     dc6:	df 91       	pop	r29
     dc8:	cf 91       	pop	r28
     dca:	1f 91       	pop	r17
     dcc:	0f 91       	pop	r16
     dce:	08 95       	ret

00000dd0 <lcd_swrite_P>:


//--------//--------//--------//--------//--------//--------//--------//--------//--------
void lcd_swrite_P(const char *s)
{
     dd0:	cf 93       	push	r28
     dd2:	df 93       	push	r29
	register char znak;
	while ((znak=pgm_read_byte(s++)))
     dd4:	ec 01       	movw	r28, r24
     dd6:	21 96       	adiw	r28, 0x01	; 1
     dd8:	fc 01       	movw	r30, r24
     dda:	84 91       	lpm	r24, Z
     ddc:	88 23       	and	r24, r24
     dde:	39 f0       	breq	.+14     	; 0xdee <lcd_swrite_P+0x1e>
	{
		lcd_send_data(znak);
     de0:	0e 94 59 06 	call	0xcb2	; 0xcb2 <lcd_send_data>

//--------//--------//--------//--------//--------//--------//--------//--------//--------
void lcd_swrite_P(const char *s)
{
	register char znak;
	while ((znak=pgm_read_byte(s++)))
     de4:	fe 01       	movw	r30, r28
     de6:	84 91       	lpm	r24, Z
     de8:	21 96       	adiw	r28, 0x01	; 1
     dea:	81 11       	cpse	r24, r1
     dec:	f9 cf       	rjmp	.-14     	; 0xde0 <lcd_swrite_P+0x10>
	{
		lcd_send_data(znak);
	}
}
     dee:	df 91       	pop	r29
     df0:	cf 91       	pop	r28
     df2:	08 95       	ret

00000df4 <lcd_iwrite>:


//--------//--------//--------//--------//--------//--------//--------//--------//--------
void lcd_iwrite(int i)
{
     df4:	cf 93       	push	r28
     df6:	df 93       	push	r29
     df8:	cd b7       	in	r28, 0x3d	; 61
     dfa:	de b7       	in	r29, 0x3e	; 62
     dfc:	2a 97       	sbiw	r28, 0x0a	; 10
     dfe:	0f b6       	in	r0, 0x3f	; 63
     e00:	f8 94       	cli
     e02:	de bf       	out	0x3e, r29	; 62
     e04:	0f be       	out	0x3f, r0	; 63
     e06:	cd bf       	out	0x3d, r28	; 61
    } else if (__radix < 2 || __radix > 36) {
	*__s = 0;
	return __s;
    } else {
	extern char *__itoa_ncheck (int, char *, unsigned char);
	return __itoa_ncheck (__val, __s, __radix);
     e08:	4a e0       	ldi	r20, 0x0A	; 10
     e0a:	be 01       	movw	r22, r28
     e0c:	6f 5f       	subi	r22, 0xFF	; 255
     e0e:	7f 4f       	sbci	r23, 0xFF	; 255
     e10:	0e 94 31 0e 	call	0x1c62	; 0x1c62 <__itoa_ncheck>
	char s[10];
	itoa(  i, s, 10); lcd_swrite(s) ;
     e14:	ce 01       	movw	r24, r28
     e16:	01 96       	adiw	r24, 0x01	; 1
     e18:	0e 94 ce 06 	call	0xd9c	; 0xd9c <lcd_swrite>
     e1c:	2a 96       	adiw	r28, 0x0a	; 10
     e1e:	0f b6       	in	r0, 0x3f	; 63
     e20:	f8 94       	cli
     e22:	de bf       	out	0x3e, r29	; 62
     e24:	0f be       	out	0x3f, r0	; 63
     e26:	cd bf       	out	0x3d, r28	; 61
     e28:	df 91       	pop	r29
     e2a:	cf 91       	pop	r28
     e2c:	08 95       	ret

00000e2e <__vector_10>:
}


//--------//--------//--------//--------//--------//--------//--------//--------//--------
ISR(TIMER0_COMP_vect)
{
     e2e:	1f 92       	push	r1
     e30:	0f 92       	push	r0
     e32:	0f b6       	in	r0, 0x3f	; 63
     e34:	0f 92       	push	r0
     e36:	11 24       	eor	r1, r1
     e38:	8f 93       	push	r24
     e3a:	9f 93       	push	r25
	if (++ms>99)
     e3c:	80 91 de 00 	lds	r24, 0x00DE
     e40:	90 91 df 00 	lds	r25, 0x00DF
     e44:	01 96       	adiw	r24, 0x01	; 1
     e46:	90 93 df 00 	sts	0x00DF, r25
     e4a:	80 93 de 00 	sts	0x00DE, r24
     e4e:	84 36       	cpi	r24, 0x64	; 100
     e50:	91 05       	cpc	r25, r1
     e52:	90 f0       	brcs	.+36     	; 0xe78 <__vector_10+0x4a>
	{
		s1_flag = 1;
     e54:	81 e0       	ldi	r24, 0x01	; 1
     e56:	80 93 6e 01 	sts	0x016E, r24
		second++;
     e5a:	80 91 e4 00 	lds	r24, 0x00E4
     e5e:	8f 5f       	subi	r24, 0xFF	; 255
     e60:	80 93 e4 00 	sts	0x00E4, r24
		
		if (second>59)
     e64:	80 91 e4 00 	lds	r24, 0x00E4
     e68:	8c 33       	cpi	r24, 0x3C	; 60
     e6a:	10 f0       	brcs	.+4      	; 0xe70 <__vector_10+0x42>
		{
			second = 0;
     e6c:	10 92 e4 00 	sts	0x00E4, r1
		}

		ms = 0;
     e70:	10 92 df 00 	sts	0x00DF, r1
     e74:	10 92 de 00 	sts	0x00DE, r1
	}
}
     e78:	9f 91       	pop	r25
     e7a:	8f 91       	pop	r24
     e7c:	0f 90       	pop	r0
     e7e:	0f be       	out	0x3f, r0	; 63
     e80:	0f 90       	pop	r0
     e82:	1f 90       	pop	r1
     e84:	18 95       	reti

00000e86 <ADC_init>:
//--------//--------//--------//--------//--------//--------//--------//--------//--------
void ADC_init()
{
	//Start ADC, external Vcc, one conversion mode, preskaler 128, input PIN0-7, 
	//align to right
	ADCSRA	|=	(1<<ADEN)					//Bit 7 – ADEN: ADC Enable
     e86:	86 b1       	in	r24, 0x06	; 6
     e88:	87 68       	ori	r24, 0x87	; 135
     e8a:	86 b9       	out	0x06, r24	; 6
	|	(1<<ADPS0)
	|	(1<<ADPS1)
	|	(1<<ADPS2);							//ADPS2:0: ADC Prescaler Select Bits 
											//(set prescaler) preskaler= 128

	ADMUX	=	(0<<REFS1) | (1<<REFS0)		//External 3.50V Voltage Reference with
     e8c:	80 e4       	ldi	r24, 0x40	; 64
     e8e:	87 b9       	out	0x07, r24	; 7
											// external capacitor at AREF pin
	|HUM_E_ADC;								//Input Channel Selections (ADC3 - Pin 3 )
	
	DDRC	&=~	(1<<PA0);					//Set input ADC
     e90:	a0 98       	cbi	0x14, 0	; 20
	DDRC	&=~	(1<<PA1);					//Set input ADC
     e92:	a1 98       	cbi	0x14, 1	; 20
	DDRC	&=~ (1<<PA2);					//Set input ADC
     e94:	a2 98       	cbi	0x14, 2	; 20
	DDRC	&=~ (1<<PA3);					//Set input ADC
     e96:	a3 98       	cbi	0x14, 3	; 20
	DDRC	&=~ (1<<PA4);					//Set input ADC
     e98:	a4 98       	cbi	0x14, 4	; 20
	DDRC	&=~ (1<<PA5);					//Set input ADC
     e9a:	a5 98       	cbi	0x14, 5	; 20
	DDRC	&=~ (1<<PA6);					//Set input ADC
     e9c:	a6 98       	cbi	0x14, 6	; 20
	DDRC	&=~ (1<<PA7);					//Set input ADC
     e9e:	a7 98       	cbi	0x14, 7	; 20
     ea0:	08 95       	ret

00000ea2 <ADC_mes>:


//--------//--------//--------//--------//--------//--------//--------//--------//--------
void ADC_mes()
{
	ADCSRA |= (1<<ADSC);		//Bit 6 – ADSC: ADC Start Conversion 
     ea2:	36 9a       	sbi	0x06, 6	; 6
								//(run single conversion)
	while(ADCSRA & (1<<ADSC));	//wait for end of conversion
     ea4:	36 99       	sbic	0x06, 6	; 6
     ea6:	fe cf       	rjmp	.-4      	; 0xea4 <ADC_mes+0x2>
}
     ea8:	08 95       	ret

00000eaa <ADC_RUNTIME>:
}


//--------//--------//--------//--------//--------//--------//--------//--------//--------
void ADC_RUNTIME(uint32_t* MES)
{
     eaa:	1f 93       	push	r17
     eac:	cf 93       	push	r28
     eae:	df 93       	push	r29
     eb0:	ec 01       	movw	r28, r24
	uint8_t i = 0;
	*MES = 0;
     eb2:	18 82       	st	Y, r1
     eb4:	19 82       	std	Y+1, r1	; 0x01
     eb6:	1a 82       	std	Y+2, r1	; 0x02
     eb8:	1b 82       	std	Y+3, r1	; 0x03
     eba:	1a e0       	ldi	r17, 0x0A	; 10
	for (i = 0; i<NUM_FOR_MES; i++)
	{
		ADC_mes();
     ebc:	0e 94 51 07 	call	0xea2	; 0xea2 <ADC_mes>
		*MES += ADC;
     ec0:	24 b1       	in	r18, 0x04	; 4
     ec2:	35 b1       	in	r19, 0x05	; 5
     ec4:	88 81       	ld	r24, Y
     ec6:	99 81       	ldd	r25, Y+1	; 0x01
     ec8:	aa 81       	ldd	r26, Y+2	; 0x02
     eca:	bb 81       	ldd	r27, Y+3	; 0x03
     ecc:	bc 01       	movw	r22, r24
     ece:	cd 01       	movw	r24, r26
     ed0:	62 0f       	add	r22, r18
     ed2:	73 1f       	adc	r23, r19
     ed4:	81 1d       	adc	r24, r1
     ed6:	91 1d       	adc	r25, r1
     ed8:	68 83       	st	Y, r22
     eda:	79 83       	std	Y+1, r23	; 0x01
     edc:	8a 83       	std	Y+2, r24	; 0x02
     ede:	9b 83       	std	Y+3, r25	; 0x03
     ee0:	11 50       	subi	r17, 0x01	; 1
//--------//--------//--------//--------//--------//--------//--------//--------//--------
void ADC_RUNTIME(uint32_t* MES)
{
	uint8_t i = 0;
	*MES = 0;
	for (i = 0; i<NUM_FOR_MES; i++)
     ee2:	61 f7       	brne	.-40     	; 0xebc <ADC_RUNTIME+0x12>
	{
		ADC_mes();
		*MES += ADC;
	}
	*MES /= NUM_FOR_MES;
     ee4:	2a e0       	ldi	r18, 0x0A	; 10
     ee6:	30 e0       	ldi	r19, 0x00	; 0
     ee8:	40 e0       	ldi	r20, 0x00	; 0
     eea:	50 e0       	ldi	r21, 0x00	; 0
     eec:	0e 94 b3 0d 	call	0x1b66	; 0x1b66 <__udivmodsi4>
     ef0:	28 83       	st	Y, r18
     ef2:	39 83       	std	Y+1, r19	; 0x01
     ef4:	4a 83       	std	Y+2, r20	; 0x02
     ef6:	5b 83       	std	Y+3, r21	; 0x03
}
     ef8:	df 91       	pop	r29
     efa:	cf 91       	pop	r28
     efc:	1f 91       	pop	r17
     efe:	08 95       	ret

00000f00 <ADCReadVaue>:


//--------//--------//--------//--------//--------//--------//--------//--------//--------
void ADCReadVaue()
{
	ADMUX  = (0<<REFS1) | (1<<REFS0)    //External 3.50V Voltage Reference with 
     f00:	80 e4       	ldi	r24, 0x40	; 64
     f02:	87 b9       	out	0x07, r24	; 7
     f04:	8f ef       	ldi	r24, 0xFF	; 255
     f06:	9b e6       	ldi	r25, 0x6B	; 107
     f08:	01 97       	sbiw	r24, 0x01	; 1
     f0a:	f1 f7       	brne	.-4      	; 0xf08 <ADCReadVaue+0x8>
     f0c:	00 c0       	rjmp	.+0      	; 0xf0e <ADCReadVaue+0xe>
     f0e:	00 00       	nop
										//external capacitor at AREF pin
	|HUM_E_ADC;
	_delay_ms(10);
	ADC_RUNTIME(&humEarthValue);
     f10:	80 e7       	ldi	r24, 0x70	; 112
     f12:	91 e0       	ldi	r25, 0x01	; 1
     f14:	0e 94 55 07 	call	0xeaa	; 0xeaa <ADC_RUNTIME>
	
	ADMUX  = (0<<REFS1) | (1<<REFS0)
     f18:	81 e4       	ldi	r24, 0x41	; 65
     f1a:	87 b9       	out	0x07, r24	; 7
     f1c:	8f ef       	ldi	r24, 0xFF	; 255
     f1e:	9b e6       	ldi	r25, 0x6B	; 107
     f20:	01 97       	sbiw	r24, 0x01	; 1
     f22:	f1 f7       	brne	.-4      	; 0xf20 <ADCReadVaue+0x20>
     f24:	00 c0       	rjmp	.+0      	; 0xf26 <ADCReadVaue+0x26>
     f26:	00 00       	nop
	|RAIN_ADC;
	_delay_ms(10);
	ADC_RUNTIME(&rainValue);
     f28:	89 eb       	ldi	r24, 0xB9	; 185
     f2a:	91 e0       	ldi	r25, 0x01	; 1
     f2c:	0e 94 55 07 	call	0xeaa	; 0xeaa <ADC_RUNTIME>
     f30:	08 95       	ret

00000f32 <BH1750_getData>:
}


//--------//--------//--------//--------//--------//--------//--------//--------//--------
void BH1750_getData()
{
     f32:	af 92       	push	r10
     f34:	bf 92       	push	r11
     f36:	cf 92       	push	r12
     f38:	df 92       	push	r13
     f3a:	ef 92       	push	r14
     f3c:	ff 92       	push	r15
     f3e:	0f 93       	push	r16
     f40:	1f 93       	push	r17
	BH1750_read( BH1750_ADR, BH1750_ONE_TIME_HIGH_RES_MODE, 2, light_buf );
     f42:	25 ee       	ldi	r18, 0xE5	; 229
     f44:	30 e0       	ldi	r19, 0x00	; 0
     f46:	42 e0       	ldi	r20, 0x02	; 2
     f48:	60 e2       	ldi	r22, 0x20	; 32
     f4a:	86 e4       	ldi	r24, 0x46	; 70
     f4c:	0e 94 5f 00 	call	0xbe	; 0xbe <BH1750_read>

	lux_temp = (light_buf[0]<<8);
     f50:	e5 ee       	ldi	r30, 0xE5	; 229
     f52:	f0 e0       	ldi	r31, 0x00	; 0
     f54:	30 81       	ld	r19, Z
     f56:	20 e0       	ldi	r18, 0x00	; 0
     f58:	93 2f       	mov	r25, r19
     f5a:	99 0f       	add	r25, r25
     f5c:	99 0b       	sbc	r25, r25
	lux_temp +=light_buf[1];
     f5e:	a1 80       	ldd	r10, Z+1	; 0x01
     f60:	49 2f       	mov	r20, r25
     f62:	59 2f       	mov	r21, r25
     f64:	69 2f       	mov	r22, r25
     f66:	79 2f       	mov	r23, r25
     f68:	89 2f       	mov	r24, r25
     f6a:	b1 2c       	mov	r11, r1
     f6c:	c1 2c       	mov	r12, r1
     f6e:	d1 2c       	mov	r13, r1
     f70:	e1 2c       	mov	r14, r1
     f72:	f1 2c       	mov	r15, r1
     f74:	00 e0       	ldi	r16, 0x00	; 0
     f76:	10 e0       	ldi	r17, 0x00	; 0
     f78:	0e 94 07 0e 	call	0x1c0e	; 0x1c0e <__adddi3>
     f7c:	20 93 84 00 	sts	0x0084, r18
     f80:	30 93 85 00 	sts	0x0085, r19
     f84:	40 93 86 00 	sts	0x0086, r20
     f88:	50 93 87 00 	sts	0x0087, r21
     f8c:	60 93 88 00 	sts	0x0088, r22
     f90:	70 93 89 00 	sts	0x0089, r23
     f94:	80 93 8a 00 	sts	0x008A, r24
     f98:	90 93 8b 00 	sts	0x008B, r25
	lux = (float)(lux_temp)/(1.2);
     f9c:	0e 94 97 0c 	call	0x192e	; 0x192e <__floatundisf>
     fa0:	2a e9       	ldi	r18, 0x9A	; 154
     fa2:	39 e9       	ldi	r19, 0x99	; 153
     fa4:	49 e9       	ldi	r20, 0x99	; 153
     fa6:	5f e3       	ldi	r21, 0x3F	; 63
     fa8:	0e 94 76 0b 	call	0x16ec	; 0x16ec <__divsf3>
     fac:	0e 94 ed 0b 	call	0x17da	; 0x17da <__fixunssfdi>
     fb0:	20 93 7c 00 	sts	0x007C, r18
     fb4:	30 93 7d 00 	sts	0x007D, r19
     fb8:	40 93 7e 00 	sts	0x007E, r20
     fbc:	50 93 7f 00 	sts	0x007F, r21
     fc0:	60 93 80 00 	sts	0x0080, r22
     fc4:	70 93 81 00 	sts	0x0081, r23
     fc8:	80 93 82 00 	sts	0x0082, r24
     fcc:	90 93 83 00 	sts	0x0083, r25
}
     fd0:	1f 91       	pop	r17
     fd2:	0f 91       	pop	r16
     fd4:	ff 90       	pop	r15
     fd6:	ef 90       	pop	r14
     fd8:	df 90       	pop	r13
     fda:	cf 90       	pop	r12
     fdc:	bf 90       	pop	r11
     fde:	af 90       	pop	r10
     fe0:	08 95       	ret

00000fe2 <BMP180_getData>:


//--------//--------//--------//--------//--------//--------//--------//--------//--------
void BMP180_getData()
{
	temp = BMP180_gett();
     fe2:	0e 94 91 01 	call	0x322	; 0x322 <BMP180_gett>
     fe6:	60 93 e0 00 	sts	0x00E0, r22
     fea:	70 93 e1 00 	sts	0x00E1, r23
     fee:	80 93 e2 00 	sts	0x00E2, r24
     ff2:	90 93 e3 00 	sts	0x00E3, r25
	press = BMP180_getp();
     ff6:	0e 94 05 02 	call	0x40a	; 0x40a <BMP180_getp>
     ffa:	60 93 b5 01 	sts	0x01B5, r22
     ffe:	70 93 b6 01 	sts	0x01B6, r23
    1002:	80 93 b7 01 	sts	0x01B7, r24
    1006:	90 93 b8 01 	sts	0x01B8, r25
    100a:	08 95       	ret

0000100c <Hello>:


//--------//--------//--------//--------//--------//--------//--------//--------//--------
void Hello()
{
	lcd_gotoxy(0,0);
    100c:	60 e0       	ldi	r22, 0x00	; 0
    100e:	80 e0       	ldi	r24, 0x00	; 0
    1010:	0e 94 c5 06 	call	0xd8a	; 0xd8a <lcd_gotoxy>
	lcd_swrite_P(PSTR("WeatherStation"));
    1014:	84 e5       	ldi	r24, 0x54	; 84
    1016:	90 e0       	ldi	r25, 0x00	; 0
    1018:	0e 94 e8 06 	call	0xdd0	; 0xdd0 <lcd_swrite_P>
	lcd_gotoxy(0,1);
    101c:	61 e0       	ldi	r22, 0x01	; 1
    101e:	80 e0       	ldi	r24, 0x00	; 0
    1020:	0e 94 c5 06 	call	0xd8a	; 0xd8a <lcd_gotoxy>
	for (subzero=0;subzero<16;subzero++)
    1024:	10 92 6f 01 	sts	0x016F, r1
	{
		lcd_swrite("+");
    1028:	80 e7       	ldi	r24, 0x70	; 112
    102a:	90 e0       	ldi	r25, 0x00	; 0
    102c:	0e 94 ce 06 	call	0xd9c	; 0xd9c <lcd_swrite>
    1030:	2f ef       	ldi	r18, 0xFF	; 255
    1032:	8f eb       	ldi	r24, 0xBF	; 191
    1034:	96 e0       	ldi	r25, 0x06	; 6
    1036:	21 50       	subi	r18, 0x01	; 1
    1038:	80 40       	sbci	r24, 0x00	; 0
    103a:	90 40       	sbci	r25, 0x00	; 0
    103c:	e1 f7       	brne	.-8      	; 0x1036 <Hello+0x2a>
    103e:	00 c0       	rjmp	.+0      	; 0x1040 <Hello+0x34>
    1040:	00 00       	nop
void Hello()
{
	lcd_gotoxy(0,0);
	lcd_swrite_P(PSTR("WeatherStation"));
	lcd_gotoxy(0,1);
	for (subzero=0;subzero<16;subzero++)
    1042:	80 91 6f 01 	lds	r24, 0x016F
    1046:	8f 5f       	subi	r24, 0xFF	; 255
    1048:	80 93 6f 01 	sts	0x016F, r24
    104c:	80 31       	cpi	r24, 0x10	; 16
    104e:	60 f3       	brcs	.-40     	; 0x1028 <Hello+0x1c>
    1050:	2f ef       	ldi	r18, 0xFF	; 255
    1052:	8f ed       	ldi	r24, 0xDF	; 223
    1054:	90 e1       	ldi	r25, 0x10	; 16
    1056:	21 50       	subi	r18, 0x01	; 1
    1058:	80 40       	sbci	r24, 0x00	; 0
    105a:	90 40       	sbci	r25, 0x00	; 0
    105c:	e1 f7       	brne	.-8      	; 0x1056 <Hello+0x4a>
    105e:	00 c0       	rjmp	.+0      	; 0x1060 <Hello+0x54>
    1060:	00 00       	nop
		lcd_swrite("+");
		_delay_ms(200);
	}
	
	_delay_ms(500);
	lcd_clear();
    1062:	0e 94 b8 06 	call	0xd70	; 0xd70 <lcd_clear>
	lcd_home();
    1066:	0e 94 bc 06 	call	0xd78	; 0xd78 <lcd_home>
    106a:	08 95       	ret

0000106c <IntToStr>:


//--------//--------//--------//--------//--------//--------//--------//--------//--------
void IntToStr()
{
	itoa(cel,buf,10);
    106c:	80 91 74 01 	lds	r24, 0x0174
    1070:	4a e0       	ldi	r20, 0x0A	; 10
    1072:	65 e7       	ldi	r22, 0x75	; 117
    1074:	71 e0       	ldi	r23, 0x01	; 1
    1076:	90 e0       	ldi	r25, 0x00	; 0
    1078:	0e 94 31 0e 	call	0x1c62	; 0x1c62 <__itoa_ncheck>
	strcat(temperatureDS18b20,buf);
    107c:	65 e7       	ldi	r22, 0x75	; 117
    107e:	71 e0       	ldi	r23, 0x01	; 1
    1080:	88 e6       	ldi	r24, 0x68	; 104
    1082:	91 e0       	ldi	r25, 0x01	; 1
    1084:	0e 94 1f 0e 	call	0x1c3e	; 0x1c3e <strcat>
	strcat(temperatureDS18b20,",");
    1088:	e8 e6       	ldi	r30, 0x68	; 104
    108a:	f1 e0       	ldi	r31, 0x01	; 1
    108c:	01 90       	ld	r0, Z+
    108e:	00 20       	and	r0, r0
    1090:	e9 f7       	brne	.-6      	; 0x108c <IntToStr+0x20>
    1092:	31 97       	sbiw	r30, 0x01	; 1
    1094:	8c e2       	ldi	r24, 0x2C	; 44
    1096:	90 e0       	ldi	r25, 0x00	; 0
    1098:	91 83       	std	Z+1, r25	; 0x01
    109a:	80 83       	st	Z, r24
	itoa(cel_frac,buf,10);
    109c:	80 91 bd 01 	lds	r24, 0x01BD
    10a0:	4a e0       	ldi	r20, 0x0A	; 10
    10a2:	65 e7       	ldi	r22, 0x75	; 117
    10a4:	71 e0       	ldi	r23, 0x01	; 1
    10a6:	90 e0       	ldi	r25, 0x00	; 0
    10a8:	0e 94 31 0e 	call	0x1c62	; 0x1c62 <__itoa_ncheck>
	strcat(temperatureDS18b20,buf);
    10ac:	65 e7       	ldi	r22, 0x75	; 117
    10ae:	71 e0       	ldi	r23, 0x01	; 1
    10b0:	88 e6       	ldi	r24, 0x68	; 104
    10b2:	91 e0       	ldi	r25, 0x01	; 1
    10b4:	0e 94 1f 0e 	call	0x1c3e	; 0x1c3e <strcat>
    10b8:	08 95       	ret

000010ba <DS18X20Read>:


//--------//--------//--------//--------//--------//--------//--------//--------//--------
void DS18X20Read()
{
	if (DS18X20_OK == DS18X20_read_meas_single(ds18b, &subzero, &cel, &cel_frac))
    10ba:	2d eb       	ldi	r18, 0xBD	; 189
    10bc:	31 e0       	ldi	r19, 0x01	; 1
    10be:	44 e7       	ldi	r20, 0x74	; 116
    10c0:	51 e0       	ldi	r21, 0x01	; 1
    10c2:	6f e6       	ldi	r22, 0x6F	; 111
    10c4:	71 e0       	ldi	r23, 0x01	; 1
    10c6:	80 91 e7 00 	lds	r24, 0x00E7
    10ca:	0e 94 28 05 	call	0xa50	; 0xa50 <DS18X20_read_meas_single>
    10ce:	81 11       	cpse	r24, r1
    10d0:	14 c0       	rjmp	.+40     	; 0x10fa <DS18X20Read+0x40>
	{
		if (subzero)
    10d2:	80 91 6f 01 	lds	r24, 0x016F
    10d6:	88 23       	and	r24, r24
    10d8:	39 f0       	breq	.+14     	; 0x10e8 <DS18X20Read+0x2e>
		{
			strcpy(temperatureDS18b20,"-");
    10da:	8d e2       	ldi	r24, 0x2D	; 45
    10dc:	90 e0       	ldi	r25, 0x00	; 0
    10de:	90 93 69 01 	sts	0x0169, r25
    10e2:	80 93 68 01 	sts	0x0168, r24
    10e6:	06 c0       	rjmp	.+12     	; 0x10f4 <DS18X20Read+0x3a>
		}
		else
		{
			strcpy(temperatureDS18b20," ");
    10e8:	80 e2       	ldi	r24, 0x20	; 32
    10ea:	90 e0       	ldi	r25, 0x00	; 0
    10ec:	90 93 69 01 	sts	0x0169, r25
    10f0:	80 93 68 01 	sts	0x0168, r24
		}
		
		IntToStr();
    10f4:	0e 94 36 08 	call	0x106c	; 0x106c <IntToStr>
    10f8:	08 95       	ret
	}
	else
	{
		lcd_gotoxy(1,0);
    10fa:	60 e0       	ldi	r22, 0x00	; 0
    10fc:	81 e0       	ldi	r24, 0x01	; 1
    10fe:	0e 94 c5 06 	call	0xd8a	; 0xd8a <lcd_gotoxy>
		lcd_swrite("error");
    1102:	82 e7       	ldi	r24, 0x72	; 114
    1104:	90 e0       	ldi	r25, 0x00	; 0
    1106:	0e 94 ce 06 	call	0xd9c	; 0xd9c <lcd_swrite>
    110a:	08 95       	ret

0000110c <DS18X20Init>:


//--------//--------//--------//--------//--------//--------//--------//--------//--------
void DS18X20Init()
{
	ds18b = search_sensors();
    110c:	0e 94 c6 04 	call	0x98c	; 0x98c <search_sensors>
    1110:	80 93 e7 00 	sts	0x00E7, r24
	DS18X20_start_meas(DS18X20_POWER_EXTERN,NULL);
    1114:	60 e0       	ldi	r22, 0x00	; 0
    1116:	70 e0       	ldi	r23, 0x00	; 0
    1118:	81 e0       	ldi	r24, 0x01	; 1
    111a:	0e 94 0c 05 	call	0xa18	; 0xa18 <DS18X20_start_meas>
    111e:	2f ef       	ldi	r18, 0xFF	; 255
    1120:	8f e4       	ldi	r24, 0x4F	; 79
    1122:	99 e1       	ldi	r25, 0x19	; 25
    1124:	21 50       	subi	r18, 0x01	; 1
    1126:	80 40       	sbci	r24, 0x00	; 0
    1128:	90 40       	sbci	r25, 0x00	; 0
    112a:	e1 f7       	brne	.-8      	; 0x1124 <DS18X20Init+0x18>
    112c:	00 c0       	rjmp	.+0      	; 0x112e <DS18X20Init+0x22>
    112e:	00 00       	nop
	
	_delay_ms(750);
	DS18X20Read();
    1130:	0e 94 5d 08 	call	0x10ba	; 0x10ba <DS18X20Read>
    1134:	08 95       	ret

00001136 <LcdDisplayData>:


//--------//--------//--------//--------//--------//--------//--------//--------//--------
void LcdDisplayData()
{
	lcd_clear();
    1136:	0e 94 b8 06 	call	0xd70	; 0xd70 <lcd_clear>
	lcd_home();
    113a:	0e 94 bc 06 	call	0xd78	; 0xd78 <lcd_home>
	
	lcd_swrite(temperatureDS18b20);
    113e:	88 e6       	ldi	r24, 0x68	; 104
    1140:	91 e0       	ldi	r25, 0x01	; 1
    1142:	0e 94 ce 06 	call	0xd9c	; 0xd9c <lcd_swrite>
	lcd_swrite(" ");
    1146:	88 e7       	ldi	r24, 0x78	; 120
    1148:	90 e0       	ldi	r25, 0x00	; 0
    114a:	0e 94 ce 06 	call	0xd9c	; 0xd9c <lcd_swrite>
	lcd_iwrite(dthHumidity*10);
    114e:	20 e0       	ldi	r18, 0x00	; 0
    1150:	30 e0       	ldi	r19, 0x00	; 0
    1152:	40 e2       	ldi	r20, 0x20	; 32
    1154:	51 e4       	ldi	r21, 0x41	; 65
    1156:	60 91 8c 00 	lds	r22, 0x008C
    115a:	70 91 8d 00 	lds	r23, 0x008D
    115e:	80 91 8e 00 	lds	r24, 0x008E
    1162:	90 91 8f 00 	lds	r25, 0x008F
    1166:	0e 94 36 0d 	call	0x1a6c	; 0x1a6c <__mulsf3>
    116a:	0e 94 24 0c 	call	0x1848	; 0x1848 <__fixsfsi>
    116e:	cb 01       	movw	r24, r22
    1170:	0e 94 fa 06 	call	0xdf4	; 0xdf4 <lcd_iwrite>
	lcd_swrite(" ");
    1174:	88 e7       	ldi	r24, 0x78	; 120
    1176:	90 e0       	ldi	r25, 0x00	; 0
    1178:	0e 94 ce 06 	call	0xd9c	; 0xd9c <lcd_swrite>
	lcd_iwrite(dthTemperature*10);
    117c:	20 e0       	ldi	r18, 0x00	; 0
    117e:	30 e0       	ldi	r19, 0x00	; 0
    1180:	40 e2       	ldi	r20, 0x20	; 32
    1182:	51 e4       	ldi	r21, 0x41	; 65
    1184:	60 91 90 00 	lds	r22, 0x0090
    1188:	70 91 91 00 	lds	r23, 0x0091
    118c:	80 91 92 00 	lds	r24, 0x0092
    1190:	90 91 93 00 	lds	r25, 0x0093
    1194:	0e 94 36 0d 	call	0x1a6c	; 0x1a6c <__mulsf3>
    1198:	0e 94 24 0c 	call	0x1848	; 0x1848 <__fixsfsi>
    119c:	cb 01       	movw	r24, r22
    119e:	0e 94 fa 06 	call	0xdf4	; 0xdf4 <lcd_iwrite>
	lcd_swrite(" ");
    11a2:	88 e7       	ldi	r24, 0x78	; 120
    11a4:	90 e0       	ldi	r25, 0x00	; 0
    11a6:	0e 94 ce 06 	call	0xd9c	; 0xd9c <lcd_swrite>
	
	lcd_gotoxy(0,1);
    11aa:	61 e0       	ldi	r22, 0x01	; 1
    11ac:	80 e0       	ldi	r24, 0x00	; 0
    11ae:	0e 94 c5 06 	call	0xd8a	; 0xd8a <lcd_gotoxy>
	lcd_iwrite(humEarthValue);
    11b2:	80 91 70 01 	lds	r24, 0x0170
    11b6:	90 91 71 01 	lds	r25, 0x0171
    11ba:	0e 94 fa 06 	call	0xdf4	; 0xdf4 <lcd_iwrite>
	lcd_swrite(" ");
    11be:	88 e7       	ldi	r24, 0x78	; 120
    11c0:	90 e0       	ldi	r25, 0x00	; 0
    11c2:	0e 94 ce 06 	call	0xd9c	; 0xd9c <lcd_swrite>
	lcd_iwrite(rainValue);
    11c6:	80 91 b9 01 	lds	r24, 0x01B9
    11ca:	90 91 ba 01 	lds	r25, 0x01BA
    11ce:	0e 94 fa 06 	call	0xdf4	; 0xdf4 <lcd_iwrite>
	lcd_swrite(" ");
    11d2:	88 e7       	ldi	r24, 0x78	; 120
    11d4:	90 e0       	ldi	r25, 0x00	; 0
    11d6:	0e 94 ce 06 	call	0xd9c	; 0xd9c <lcd_swrite>
	
	lcd_iwrite(lux);
    11da:	80 91 7c 00 	lds	r24, 0x007C
    11de:	90 91 7d 00 	lds	r25, 0x007D
    11e2:	0e 94 fa 06 	call	0xdf4	; 0xdf4 <lcd_iwrite>
	lcd_swrite(" ");
    11e6:	88 e7       	ldi	r24, 0x78	; 120
    11e8:	90 e0       	ldi	r25, 0x00	; 0
    11ea:	0e 94 ce 06 	call	0xd9c	; 0xd9c <lcd_swrite>
    11ee:	08 95       	ret

000011f0 <SecondsRuntime>:


//--------//--------//--------//--------//--------//--------//--------//--------//--------
void SecondsRuntime()
{
	if ((second%3) == 0)
    11f0:	90 91 e4 00 	lds	r25, 0x00E4
    11f4:	8b ea       	ldi	r24, 0xAB	; 171
    11f6:	98 9f       	mul	r25, r24
    11f8:	81 2d       	mov	r24, r1
    11fa:	11 24       	eor	r1, r1
    11fc:	86 95       	lsr	r24
    11fe:	28 2f       	mov	r18, r24
    1200:	22 0f       	add	r18, r18
    1202:	82 0f       	add	r24, r18
    1204:	98 13       	cpse	r25, r24
    1206:	06 c0       	rjmp	.+12     	; 0x1214 <SecondsRuntime+0x24>
	{
		if(dht_gettemperaturehumidity(&dthTemperature, &dthHumidity) != -1)
    1208:	6c e8       	ldi	r22, 0x8C	; 140
    120a:	70 e0       	ldi	r23, 0x00	; 0
    120c:	80 e9       	ldi	r24, 0x90	; 144
    120e:	90 e0       	ldi	r25, 0x00	; 0
    1210:	0e 94 44 04 	call	0x888	; 0x888 <dht_gettemperaturehumidity>
		{
		}
	}
	if ((second%3) == 1)
    1214:	90 91 e4 00 	lds	r25, 0x00E4
    1218:	8b ea       	ldi	r24, 0xAB	; 171
    121a:	98 9f       	mul	r25, r24
    121c:	81 2d       	mov	r24, r1
    121e:	11 24       	eor	r1, r1
    1220:	86 95       	lsr	r24
    1222:	28 2f       	mov	r18, r24
    1224:	22 0f       	add	r18, r18
    1226:	82 0f       	add	r24, r18
    1228:	98 1b       	sub	r25, r24
    122a:	91 30       	cpi	r25, 0x01	; 1
    122c:	29 f4       	brne	.+10     	; 0x1238 <SecondsRuntime+0x48>
	{
		DS18X20_start_meas(DS18X20_POWER_EXTERN,NULL);
    122e:	60 e0       	ldi	r22, 0x00	; 0
    1230:	70 e0       	ldi	r23, 0x00	; 0
    1232:	81 e0       	ldi	r24, 0x01	; 1
    1234:	0e 94 0c 05 	call	0xa18	; 0xa18 <DS18X20_start_meas>
	}
	if ((second%3) == 2)
    1238:	90 91 e4 00 	lds	r25, 0x00E4
    123c:	8b ea       	ldi	r24, 0xAB	; 171
    123e:	98 9f       	mul	r25, r24
    1240:	81 2d       	mov	r24, r1
    1242:	11 24       	eor	r1, r1
    1244:	86 95       	lsr	r24
    1246:	28 2f       	mov	r18, r24
    1248:	22 0f       	add	r18, r18
    124a:	82 0f       	add	r24, r18
    124c:	98 1b       	sub	r25, r24
    124e:	92 30       	cpi	r25, 0x02	; 2
    1250:	11 f4       	brne	.+4      	; 0x1256 <SecondsRuntime+0x66>
	{
		DS18X20Read();
    1252:	0e 94 5d 08 	call	0x10ba	; 0x10ba <DS18X20Read>
	}
	
	s1_flag = 0;
    1256:	10 92 6e 01 	sts	0x016E, r1
    125a:	08 95       	ret

0000125c <timer0Init>:


//--------//--------//--------//--------//--------//--------//--------//--------//--------
void timer0Init()
{
	TCCR0 |= (1<<WGM01);			//tryb CTC
    125c:	83 b7       	in	r24, 0x33	; 51
    125e:	88 60       	ori	r24, 0x08	; 8
    1260:	83 bf       	out	0x33, r24	; 51
	TCCR0 |= (1<<CS02) | (1<<CS00); //preskaler 1024
    1262:	83 b7       	in	r24, 0x33	; 51
    1264:	85 60       	ori	r24, 0x05	; 5
    1266:	83 bf       	out	0x33, r24	; 51
	OCR0   = 108;					//przerwanie co 10ms
    1268:	8c e6       	ldi	r24, 0x6C	; 108
    126a:	8c bf       	out	0x3c, r24	; 60
	TIMSK |= (1<<OCIE0);			//zezwolenie na przerwanie compare match
    126c:	89 b7       	in	r24, 0x39	; 57
    126e:	82 60       	ori	r24, 0x02	; 2
    1270:	89 bf       	out	0x39, r24	; 57
    1272:	08 95       	ret

00001274 <USARTMakeDataFrame>:
}


//--------//--------//--------//--------//--------//--------//--------//--------//--------
void USARTMakeDataFrame()
{
    1274:	ef 92       	push	r14
    1276:	ff 92       	push	r15
    1278:	0f 93       	push	r16
    127a:	1f 93       	push	r17
    127c:	cf 93       	push	r28
    127e:	df 93       	push	r29
	strcpy(usartData,temperatureDS18b20);
    1280:	68 e6       	ldi	r22, 0x68	; 104
    1282:	71 e0       	ldi	r23, 0x01	; 1
    1284:	88 ee       	ldi	r24, 0xE8	; 232
    1286:	90 e0       	ldi	r25, 0x00	; 0
    1288:	0e 94 2a 0e 	call	0x1c54	; 0x1c54 <strcpy>
	strcat(usartData," ");
    128c:	c8 ee       	ldi	r28, 0xE8	; 232
    128e:	d0 e0       	ldi	r29, 0x00	; 0
    1290:	fe 01       	movw	r30, r28
    1292:	01 90       	ld	r0, Z+
    1294:	00 20       	and	r0, r0
    1296:	e9 f7       	brne	.-6      	; 0x1292 <USARTMakeDataFrame+0x1e>
    1298:	31 97       	sbiw	r30, 0x01	; 1
    129a:	00 e2       	ldi	r16, 0x20	; 32
    129c:	10 e0       	ldi	r17, 0x00	; 0
    129e:	11 83       	std	Z+1, r17	; 0x01
    12a0:	00 83       	st	Z, r16
	
	itoa(dthTemperature * 10,buf,10);
    12a2:	20 e0       	ldi	r18, 0x00	; 0
    12a4:	30 e0       	ldi	r19, 0x00	; 0
    12a6:	40 e2       	ldi	r20, 0x20	; 32
    12a8:	51 e4       	ldi	r21, 0x41	; 65
    12aa:	60 91 90 00 	lds	r22, 0x0090
    12ae:	70 91 91 00 	lds	r23, 0x0091
    12b2:	80 91 92 00 	lds	r24, 0x0092
    12b6:	90 91 93 00 	lds	r25, 0x0093
    12ba:	0e 94 36 0d 	call	0x1a6c	; 0x1a6c <__mulsf3>
    12be:	0e 94 24 0c 	call	0x1848	; 0x1848 <__fixsfsi>
    12c2:	dc 01       	movw	r26, r24
    12c4:	cb 01       	movw	r24, r22
    12c6:	4a e0       	ldi	r20, 0x0A	; 10
    12c8:	65 e7       	ldi	r22, 0x75	; 117
    12ca:	71 e0       	ldi	r23, 0x01	; 1
    12cc:	0e 94 31 0e 	call	0x1c62	; 0x1c62 <__itoa_ncheck>
	strcat(usartData,buf);
    12d0:	65 e7       	ldi	r22, 0x75	; 117
    12d2:	71 e0       	ldi	r23, 0x01	; 1
    12d4:	ce 01       	movw	r24, r28
    12d6:	0e 94 1f 0e 	call	0x1c3e	; 0x1c3e <strcat>
	strcat(usartData," ");
    12da:	fe 01       	movw	r30, r28
    12dc:	01 90       	ld	r0, Z+
    12de:	00 20       	and	r0, r0
    12e0:	e9 f7       	brne	.-6      	; 0x12dc <USARTMakeDataFrame+0x68>
    12e2:	31 97       	sbiw	r30, 0x01	; 1
    12e4:	11 83       	std	Z+1, r17	; 0x01
    12e6:	00 83       	st	Z, r16
	
	itoa(dthHumidity * 10,buf,10);
    12e8:	20 e0       	ldi	r18, 0x00	; 0
    12ea:	30 e0       	ldi	r19, 0x00	; 0
    12ec:	40 e2       	ldi	r20, 0x20	; 32
    12ee:	51 e4       	ldi	r21, 0x41	; 65
    12f0:	60 91 8c 00 	lds	r22, 0x008C
    12f4:	70 91 8d 00 	lds	r23, 0x008D
    12f8:	80 91 8e 00 	lds	r24, 0x008E
    12fc:	90 91 8f 00 	lds	r25, 0x008F
    1300:	0e 94 36 0d 	call	0x1a6c	; 0x1a6c <__mulsf3>
    1304:	0e 94 24 0c 	call	0x1848	; 0x1848 <__fixsfsi>
    1308:	dc 01       	movw	r26, r24
    130a:	cb 01       	movw	r24, r22
    130c:	4a e0       	ldi	r20, 0x0A	; 10
    130e:	65 e7       	ldi	r22, 0x75	; 117
    1310:	71 e0       	ldi	r23, 0x01	; 1
    1312:	0e 94 31 0e 	call	0x1c62	; 0x1c62 <__itoa_ncheck>
	strcat(usartData,buf);
    1316:	65 e7       	ldi	r22, 0x75	; 117
    1318:	71 e0       	ldi	r23, 0x01	; 1
    131a:	ce 01       	movw	r24, r28
    131c:	0e 94 1f 0e 	call	0x1c3e	; 0x1c3e <strcat>
	strcat(usartData," ");
    1320:	fe 01       	movw	r30, r28
    1322:	01 90       	ld	r0, Z+
    1324:	00 20       	and	r0, r0
    1326:	e9 f7       	brne	.-6      	; 0x1322 <USARTMakeDataFrame+0xae>
    1328:	31 97       	sbiw	r30, 0x01	; 1
    132a:	11 83       	std	Z+1, r17	; 0x01
    132c:	00 83       	st	Z, r16
    132e:	4a e0       	ldi	r20, 0x0A	; 10
    1330:	65 e7       	ldi	r22, 0x75	; 117
    1332:	71 e0       	ldi	r23, 0x01	; 1
    1334:	80 91 70 01 	lds	r24, 0x0170
    1338:	90 91 71 01 	lds	r25, 0x0171
    133c:	0e 94 31 0e 	call	0x1c62	; 0x1c62 <__itoa_ncheck>
	
	itoa(humEarthValue,buf,10);
	strcat(usartData,buf);
    1340:	65 e7       	ldi	r22, 0x75	; 117
    1342:	71 e0       	ldi	r23, 0x01	; 1
    1344:	ce 01       	movw	r24, r28
    1346:	0e 94 1f 0e 	call	0x1c3e	; 0x1c3e <strcat>
	strcat(usartData," ");
    134a:	fe 01       	movw	r30, r28
    134c:	01 90       	ld	r0, Z+
    134e:	00 20       	and	r0, r0
    1350:	e9 f7       	brne	.-6      	; 0x134c <USARTMakeDataFrame+0xd8>
    1352:	31 97       	sbiw	r30, 0x01	; 1
    1354:	11 83       	std	Z+1, r17	; 0x01
    1356:	00 83       	st	Z, r16
    1358:	4a e0       	ldi	r20, 0x0A	; 10
    135a:	65 e7       	ldi	r22, 0x75	; 117
    135c:	71 e0       	ldi	r23, 0x01	; 1
    135e:	80 91 b9 01 	lds	r24, 0x01B9
    1362:	90 91 ba 01 	lds	r25, 0x01BA
    1366:	0e 94 31 0e 	call	0x1c62	; 0x1c62 <__itoa_ncheck>
	
	itoa(rainValue,buf,10);
	strcat(usartData,buf);
    136a:	65 e7       	ldi	r22, 0x75	; 117
    136c:	71 e0       	ldi	r23, 0x01	; 1
    136e:	ce 01       	movw	r24, r28
    1370:	0e 94 1f 0e 	call	0x1c3e	; 0x1c3e <strcat>
	strcat(usartData," ");
    1374:	fe 01       	movw	r30, r28
    1376:	01 90       	ld	r0, Z+
    1378:	00 20       	and	r0, r0
    137a:	e9 f7       	brne	.-6      	; 0x1376 <USARTMakeDataFrame+0x102>
    137c:	31 97       	sbiw	r30, 0x01	; 1
    137e:	11 83       	std	Z+1, r17	; 0x01
    1380:	00 83       	st	Z, r16
    1382:	4a e0       	ldi	r20, 0x0A	; 10
    1384:	65 e7       	ldi	r22, 0x75	; 117
    1386:	71 e0       	ldi	r23, 0x01	; 1
    1388:	80 91 7c 00 	lds	r24, 0x007C
    138c:	90 91 7d 00 	lds	r25, 0x007D
    1390:	0e 94 31 0e 	call	0x1c62	; 0x1c62 <__itoa_ncheck>
	
	itoa(lux,buf,10);
	strcat(usartData,buf);
    1394:	65 e7       	ldi	r22, 0x75	; 117
    1396:	71 e0       	ldi	r23, 0x01	; 1
    1398:	ce 01       	movw	r24, r28
    139a:	0e 94 1f 0e 	call	0x1c3e	; 0x1c3e <strcat>
	strcat(usartData," ");
    139e:	fe 01       	movw	r30, r28
    13a0:	01 90       	ld	r0, Z+
    13a2:	00 20       	and	r0, r0
    13a4:	e9 f7       	brne	.-6      	; 0x13a0 <USARTMakeDataFrame+0x12c>
    13a6:	31 97       	sbiw	r30, 0x01	; 1
    13a8:	11 83       	std	Z+1, r17	; 0x01
    13aa:	00 83       	st	Z, r16
	
	itoa(light_buf[0],buf,10);
    13ac:	0f 2e       	mov	r0, r31
    13ae:	f5 ee       	ldi	r31, 0xE5	; 229
    13b0:	ef 2e       	mov	r14, r31
    13b2:	f0 e0       	ldi	r31, 0x00	; 0
    13b4:	ff 2e       	mov	r15, r31
    13b6:	f0 2d       	mov	r31, r0
    13b8:	f7 01       	movw	r30, r14
    13ba:	80 81       	ld	r24, Z
    13bc:	4a e0       	ldi	r20, 0x0A	; 10
    13be:	65 e7       	ldi	r22, 0x75	; 117
    13c0:	71 e0       	ldi	r23, 0x01	; 1
    13c2:	90 e0       	ldi	r25, 0x00	; 0
    13c4:	0e 94 31 0e 	call	0x1c62	; 0x1c62 <__itoa_ncheck>
	strcat(usartData,buf);
    13c8:	65 e7       	ldi	r22, 0x75	; 117
    13ca:	71 e0       	ldi	r23, 0x01	; 1
    13cc:	ce 01       	movw	r24, r28
    13ce:	0e 94 1f 0e 	call	0x1c3e	; 0x1c3e <strcat>
	strcat(usartData,",");
    13d2:	fe 01       	movw	r30, r28
    13d4:	01 90       	ld	r0, Z+
    13d6:	00 20       	and	r0, r0
    13d8:	e9 f7       	brne	.-6      	; 0x13d4 <USARTMakeDataFrame+0x160>
    13da:	31 97       	sbiw	r30, 0x01	; 1
    13dc:	8c e2       	ldi	r24, 0x2C	; 44
    13de:	90 e0       	ldi	r25, 0x00	; 0
    13e0:	91 83       	std	Z+1, r25	; 0x01
    13e2:	80 83       	st	Z, r24
	itoa(light_buf[1],buf,10);
    13e4:	f7 01       	movw	r30, r14
    13e6:	81 81       	ldd	r24, Z+1	; 0x01
    13e8:	4a e0       	ldi	r20, 0x0A	; 10
    13ea:	65 e7       	ldi	r22, 0x75	; 117
    13ec:	71 e0       	ldi	r23, 0x01	; 1
    13ee:	90 e0       	ldi	r25, 0x00	; 0
    13f0:	0e 94 31 0e 	call	0x1c62	; 0x1c62 <__itoa_ncheck>
	strcat(usartData,buf);
    13f4:	65 e7       	ldi	r22, 0x75	; 117
    13f6:	71 e0       	ldi	r23, 0x01	; 1
    13f8:	ce 01       	movw	r24, r28
    13fa:	0e 94 1f 0e 	call	0x1c3e	; 0x1c3e <strcat>
	strcat(usartData," ");
    13fe:	fe 01       	movw	r30, r28
    1400:	01 90       	ld	r0, Z+
    1402:	00 20       	and	r0, r0
    1404:	e9 f7       	brne	.-6      	; 0x1400 <USARTMakeDataFrame+0x18c>
    1406:	31 97       	sbiw	r30, 0x01	; 1
    1408:	11 83       	std	Z+1, r17	; 0x01
    140a:	00 83       	st	Z, r16
    140c:	4a e0       	ldi	r20, 0x0A	; 10
    140e:	65 e7       	ldi	r22, 0x75	; 117
    1410:	71 e0       	ldi	r23, 0x01	; 1
    1412:	80 91 e0 00 	lds	r24, 0x00E0
    1416:	90 91 e1 00 	lds	r25, 0x00E1
    141a:	0e 94 31 0e 	call	0x1c62	; 0x1c62 <__itoa_ncheck>
	
	itoa(temp,buf,10);
	strcat(usartData,buf);
    141e:	65 e7       	ldi	r22, 0x75	; 117
    1420:	71 e0       	ldi	r23, 0x01	; 1
    1422:	ce 01       	movw	r24, r28
    1424:	0e 94 1f 0e 	call	0x1c3e	; 0x1c3e <strcat>
	strcat(usartData," ");
    1428:	fe 01       	movw	r30, r28
    142a:	01 90       	ld	r0, Z+
    142c:	00 20       	and	r0, r0
    142e:	e9 f7       	brne	.-6      	; 0x142a <USARTMakeDataFrame+0x1b6>
    1430:	31 97       	sbiw	r30, 0x01	; 1
    1432:	11 83       	std	Z+1, r17	; 0x01
    1434:	00 83       	st	Z, r16
	
	itoa(press>>8,buf,10);
    1436:	80 91 b5 01 	lds	r24, 0x01B5
    143a:	90 91 b6 01 	lds	r25, 0x01B6
    143e:	a0 91 b7 01 	lds	r26, 0x01B7
    1442:	b0 91 b8 01 	lds	r27, 0x01B8
    1446:	89 2f       	mov	r24, r25
    1448:	9a 2f       	mov	r25, r26
    144a:	ab 2f       	mov	r26, r27
    144c:	bb 27       	eor	r27, r27
    144e:	a7 fd       	sbrc	r26, 7
    1450:	ba 95       	dec	r27
    1452:	4a e0       	ldi	r20, 0x0A	; 10
    1454:	65 e7       	ldi	r22, 0x75	; 117
    1456:	71 e0       	ldi	r23, 0x01	; 1
    1458:	0e 94 31 0e 	call	0x1c62	; 0x1c62 <__itoa_ncheck>
	strcat(usartData,buf);
    145c:	65 e7       	ldi	r22, 0x75	; 117
    145e:	71 e0       	ldi	r23, 0x01	; 1
    1460:	ce 01       	movw	r24, r28
    1462:	0e 94 1f 0e 	call	0x1c3e	; 0x1c3e <strcat>
	strcat(usartData," ");
    1466:	fe 01       	movw	r30, r28
    1468:	01 90       	ld	r0, Z+
    146a:	00 20       	and	r0, r0
    146c:	e9 f7       	brne	.-6      	; 0x1468 <USARTMakeDataFrame+0x1f4>
    146e:	31 97       	sbiw	r30, 0x01	; 1
    1470:	11 83       	std	Z+1, r17	; 0x01
    1472:	00 83       	st	Z, r16
	
	strcat(usartData," ");
    1474:	fe 01       	movw	r30, r28
    1476:	01 90       	ld	r0, Z+
    1478:	00 20       	and	r0, r0
    147a:	e9 f7       	brne	.-6      	; 0x1476 <USARTMakeDataFrame+0x202>
    147c:	31 97       	sbiw	r30, 0x01	; 1
    147e:	11 83       	std	Z+1, r17	; 0x01
    1480:	00 83       	st	Z, r16
	itoa(press & 0x00FF,buf,10);
    1482:	80 91 b5 01 	lds	r24, 0x01B5
    1486:	4a e0       	ldi	r20, 0x0A	; 10
    1488:	65 e7       	ldi	r22, 0x75	; 117
    148a:	71 e0       	ldi	r23, 0x01	; 1
    148c:	90 e0       	ldi	r25, 0x00	; 0
    148e:	0e 94 31 0e 	call	0x1c62	; 0x1c62 <__itoa_ncheck>
	strcat(usartData,buf);
    1492:	65 e7       	ldi	r22, 0x75	; 117
    1494:	71 e0       	ldi	r23, 0x01	; 1
    1496:	ce 01       	movw	r24, r28
    1498:	0e 94 1f 0e 	call	0x1c3e	; 0x1c3e <strcat>
	strcat(usartData," ");
    149c:	09 90       	ld	r0, Y+
    149e:	00 20       	and	r0, r0
    14a0:	e9 f7       	brne	.-6      	; 0x149c <USARTMakeDataFrame+0x228>
    14a2:	21 97       	sbiw	r28, 0x01	; 1
    14a4:	19 83       	std	Y+1, r17	; 0x01
    14a6:	08 83       	st	Y, r16
	
	
	strcat(usartData,&CR);
    14a8:	6a e7       	ldi	r22, 0x7A	; 122
    14aa:	70 e0       	ldi	r23, 0x00	; 0
    14ac:	88 ee       	ldi	r24, 0xE8	; 232
    14ae:	90 e0       	ldi	r25, 0x00	; 0
    14b0:	0e 94 1f 0e 	call	0x1c3e	; 0x1c3e <strcat>
}
    14b4:	df 91       	pop	r29
    14b6:	cf 91       	pop	r28
    14b8:	1f 91       	pop	r17
    14ba:	0f 91       	pop	r16
    14bc:	ff 90       	pop	r15
    14be:	ef 90       	pop	r14
    14c0:	08 95       	ret

000014c2 <USART_Init>:

//--------//--------//--------//--------//--------//--------//--------//--------//--------
void USART_Init()
{
	/*Set baud rate */
	UBRRH = UBRRH_VALUE;
    14c2:	10 bc       	out	0x20, r1	; 32
	UBRRL = UBRRL_VALUE;
    14c4:	87 e4       	ldi	r24, 0x47	; 71
    14c6:	89 b9       	out	0x09, r24	; 9
	
	/*Enable transmitter */
	UCSRB |= (1<<TXEN);
    14c8:	53 9a       	sbi	0x0a, 3	; 10
	
	/* Set frame format: 8data, 1stop bit */
	UCSRC = (1<<URSEL)|(1<<USBS)|(3<<UCSZ0);
    14ca:	8e e8       	ldi	r24, 0x8E	; 142
    14cc:	80 bd       	out	0x20, r24	; 32
    14ce:	08 95       	ret

000014d0 <USART_TransmitByte>:

//--------//--------//--------//--------//--------//--------//--------//--------//--------
void USART_TransmitByte(uint8_t a_data)
{
	/* Wait for empty transmit buffer */
	while ( !( UCSRA & (1<<UDRE)) );
    14d0:	5d 9b       	sbis	0x0b, 5	; 11
    14d2:	fe cf       	rjmp	.-4      	; 0x14d0 <USART_TransmitByte>
	
	/* Put data into buffer, sends the data */
	UDR = a_data;
    14d4:	8c b9       	out	0x0c, r24	; 12
    14d6:	08 95       	ret

000014d8 <USART_SendText>:
}


//--------//--------//--------//--------//--------//--------//--------//--------//--------
void USART_SendText(char* a_Text)
{
    14d8:	cf 93       	push	r28
    14da:	df 93       	push	r29
    14dc:	ec 01       	movw	r28, r24
	while(*a_Text != 0x00)
    14de:	88 81       	ld	r24, Y
    14e0:	88 23       	and	r24, r24
    14e2:	31 f0       	breq	.+12     	; 0x14f0 <USART_SendText+0x18>
    14e4:	21 96       	adiw	r28, 0x01	; 1
	{
		USART_TransmitByte(*a_Text);
    14e6:	0e 94 68 0a 	call	0x14d0	; 0x14d0 <USART_TransmitByte>


//--------//--------//--------//--------//--------//--------//--------//--------//--------
void USART_SendText(char* a_Text)
{
	while(*a_Text != 0x00)
    14ea:	89 91       	ld	r24, Y+
    14ec:	81 11       	cpse	r24, r1
    14ee:	fb cf       	rjmp	.-10     	; 0x14e6 <USART_SendText+0xe>
	{
		USART_TransmitByte(*a_Text);
		a_Text++;
	}
}
    14f0:	df 91       	pop	r29
    14f2:	cf 91       	pop	r28
    14f4:	08 95       	ret

000014f6 <main>:
long temp, press;

//--------//--------//--------//--------//--------//--------//--------//--------//--------
int main(void)
{
	DDRB  |= (SPEAKER);
    14f6:	bb 9a       	sbi	0x17, 3	; 23
	PORTB &= ~SPEAKER;
    14f8:	c3 98       	cbi	0x18, 3	; 24
	
	ADC_init();
    14fa:	0e 94 43 07 	call	0xe86	; 0xe86 <ADC_init>
	DS18X20Init();
    14fe:	0e 94 86 08 	call	0x110c	; 0x110c <DS18X20Init>
	lcd_init();
    1502:	0e 94 62 06 	call	0xcc4	; 0xcc4 <lcd_init>
	timer0Init();	
    1506:	0e 94 2e 09 	call	0x125c	; 0x125c <timer0Init>
	USART_Init();
    150a:	0e 94 61 0a 	call	0x14c2	; 0x14c2 <USART_Init>
	
	i2cSetBitrate(100);
    150e:	84 e6       	ldi	r24, 0x64	; 100
    1510:	0e 94 81 05 	call	0xb02	; 0xb02 <i2cSetBitrate>
	BH1750_init();
    1514:	0e 94 51 00 	call	0xa2	; 0xa2 <BH1750_init>
	BMP180_init();
    1518:	0e 94 97 00 	call	0x12e	; 0x12e <BMP180_init>
    151c:	2f ef       	ldi	r18, 0xFF	; 255
    151e:	8f eb       	ldi	r24, 0xBF	; 191
    1520:	91 e2       	ldi	r25, 0x21	; 33
    1522:	21 50       	subi	r18, 0x01	; 1
    1524:	80 40       	sbci	r24, 0x00	; 0
    1526:	90 40       	sbci	r25, 0x00	; 0
    1528:	e1 f7       	brne	.-8      	; 0x1522 <main+0x2c>
    152a:	00 c0       	rjmp	.+0      	; 0x152c <main+0x36>
    152c:	00 00       	nop
	
	_delay_ms(1000);
		
	sei();
    152e:	78 94       	sei
	
	Hello();
    1530:	0e 94 06 08 	call	0x100c	; 0x100c <Hello>

    while (1) 
    {		
		if (s1_flag)
    1534:	80 91 6e 01 	lds	r24, 0x016E
    1538:	88 23       	and	r24, r24
    153a:	e1 f3       	breq	.-8      	; 0x1534 <main+0x3e>
		{
			BH1750_getData();
    153c:	0e 94 99 07 	call	0xf32	; 0xf32 <BH1750_getData>
			
			BMP180_getData();
    1540:	0e 94 f1 07 	call	0xfe2	; 0xfe2 <BMP180_getData>
			
			SecondsRuntime();
    1544:	0e 94 f8 08 	call	0x11f0	; 0x11f0 <SecondsRuntime>
			
			LcdDisplayData();
    1548:	0e 94 9b 08 	call	0x1136	; 0x1136 <LcdDisplayData>
			
			ADCReadVaue();			
    154c:	0e 94 80 07 	call	0xf00	; 0xf00 <ADCReadVaue>
			
			USARTMakeDataFrame();
    1550:	0e 94 3a 09 	call	0x1274	; 0x1274 <USARTMakeDataFrame>
			
			USART_SendText(usartData);
    1554:	88 ee       	ldi	r24, 0xE8	; 232
    1556:	90 e0       	ldi	r25, 0x00	; 0
    1558:	0e 94 6c 0a 	call	0x14d8	; 0x14d8 <USART_SendText>
    155c:	eb cf       	rjmp	.-42     	; 0x1534 <main+0x3e>

0000155e <ow_input_pin_state>:


//--------//--------//--------//--------//--------//--------//--------//--------//--------
uint8_t ow_input_pin_state(void)
{
	return OW_GET_IN();
    155e:	80 b3       	in	r24, 0x10	; 16
}
    1560:	88 70       	andi	r24, 0x08	; 8
    1562:	08 95       	ret

00001564 <ow_parasite_enable>:


//--------//--------//--------//--------//--------//--------//--------//--------//--------
void ow_parasite_enable(void)
{
    OW_OUT_HIGH();
    1564:	93 9a       	sbi	0x12, 3	; 18
	OW_DIR_OUT();
    1566:	8b 9a       	sbi	0x11, 3	; 17
    1568:	08 95       	ret

0000156a <ow_reset>:
uint8_t ow_reset(void)
{
	uint8_t err;
	uint8_t sreg;

	OW_OUT_LOW(); // disable internal pull-up (maybe on from parasite)
    156a:	93 98       	cbi	0x12, 3	; 18
	OW_DIR_OUT(); // pull OW-Pin low for 480us
    156c:	8b 9a       	sbi	0x11, 3	; 17
	#else
		//round up by default
		__ticks_dc = (uint32_t)(ceil(fabs(__tmp)));
	#endif

	__builtin_avr_delay_cycles(__ticks_dc);
    156e:	8f e2       	ldi	r24, 0x2F	; 47
    1570:	95 e0       	ldi	r25, 0x05	; 5
    1572:	01 97       	sbiw	r24, 0x01	; 1
    1574:	f1 f7       	brne	.-4      	; 0x1572 <ow_reset+0x8>

	_delay_us(480);

	sreg=SREG;
    1576:	9f b7       	in	r25, 0x3f	; 63
	cli();
    1578:	f8 94       	cli

	// set Pin as input - wait for clients to pull low
	OW_DIR_IN(); // input
    157a:	8b 98       	cbi	0x11, 3	; 17
    157c:	e3 ef       	ldi	r30, 0xF3	; 243
    157e:	ea 95       	dec	r30
    1580:	f1 f7       	brne	.-4      	; 0x157e <ow_reset+0x14>
    1582:	00 00       	nop

	_delay_us(66);
	err = OW_GET_IN();		// no presence detect
    1584:	80 b3       	in	r24, 0x10	; 16
	// nobody pulled to low, still high

	SREG=sreg; // sei()
    1586:	9f bf       	out	0x3f, r25	; 63
    1588:	e8 e7       	ldi	r30, 0x78	; 120
    158a:	f4 e0       	ldi	r31, 0x04	; 4
    158c:	31 97       	sbiw	r30, 0x01	; 1
    158e:	f1 f7       	brne	.-4      	; 0x158c <ow_reset+0x22>
    1590:	00 c0       	rjmp	.+0      	; 0x1592 <ow_reset+0x28>

	// after a delay the clients should release the line
	// and input-pin gets back to high due to pull-up-resistor
	_delay_us(480-66);
	if( OW_GET_IN() == 0 )		// short circuit
    1592:	83 9b       	sbis	0x10, 3	; 16
    1594:	02 c0       	rjmp	.+4      	; 0x159a <ow_reset+0x30>

	// set Pin as input - wait for clients to pull low
	OW_DIR_IN(); // input

	_delay_us(66);
	err = OW_GET_IN();		// no presence detect
    1596:	88 70       	andi	r24, 0x08	; 8
    1598:	08 95       	ret

	// after a delay the clients should release the line
	// and input-pin gets back to high due to pull-up-resistor
	_delay_us(480-66);
	if( OW_GET_IN() == 0 )		// short circuit
		err = 1;
    159a:	81 e0       	ldi	r24, 0x01	; 1

	return err;
}
    159c:	08 95       	ret

0000159e <ow_bit_io>:
//--------//--------//--------//--------//--------//--------//--------//--------//--------
uint8_t ow_bit_io( uint8_t b )
{
	uint8_t sreg;

	sreg=SREG;
    159e:	9f b7       	in	r25, 0x3f	; 63
	cli();
    15a0:	f8 94       	cli

	OW_DIR_OUT(); // drive bus low
    15a2:	8b 9a       	sbi	0x11, 3	; 17
    15a4:	24 e0       	ldi	r18, 0x04	; 4
    15a6:	2a 95       	dec	r18
    15a8:	f1 f7       	brne	.-4      	; 0x15a6 <ow_bit_io+0x8>

	_delay_us(1); // Recovery-Time wuffwuff was 1
	if ( b ) OW_DIR_IN(); // if bit is 1 set bus high (by ext. pull-up)
    15aa:	81 11       	cpse	r24, r1
    15ac:	8b 98       	cbi	0x11, 3	; 17
    15ae:	27 e3       	ldi	r18, 0x37	; 55
    15b0:	2a 95       	dec	r18
    15b2:	f1 f7       	brne	.-4      	; 0x15b0 <ow_bit_io+0x12>
    15b4:	00 00       	nop

	_delay_us(15);

	if( OW_GET_IN() == 0 ) b = 0;  // sample at end of read-timeslot
    15b6:	83 9b       	sbis	0x10, 3	; 16
    15b8:	80 e0       	ldi	r24, 0x00	; 0
    15ba:	26 ea       	ldi	r18, 0xA6	; 166
    15bc:	2a 95       	dec	r18
    15be:	f1 f7       	brne	.-4      	; 0x15bc <ow_bit_io+0x1e>

	_delay_us(60-15);
	OW_DIR_IN();
    15c0:	8b 98       	cbi	0x11, 3	; 17

	SREG=sreg; // sei();
    15c2:	9f bf       	out	0x3f, r25	; 63

	return b;
}
    15c4:	08 95       	ret

000015c6 <ow_byte_wr>:


//--------//--------//--------//--------//--------//--------//--------//--------//--------
uint8_t ow_byte_wr( uint8_t b )
{
    15c6:	cf 93       	push	r28
    15c8:	df 93       	push	r29
    15ca:	c8 2f       	mov	r28, r24
    15cc:	d8 e0       	ldi	r29, 0x08	; 8
	uint8_t i = 8, j;

	do 
	{
		j = ow_bit_io( b & 1 );
    15ce:	8c 2f       	mov	r24, r28
    15d0:	81 70       	andi	r24, 0x01	; 1
    15d2:	0e 94 cf 0a 	call	0x159e	; 0x159e <ow_bit_io>
		b >>= 1;
    15d6:	c6 95       	lsr	r28
		if( j ) b |= 0x80;
    15d8:	81 11       	cpse	r24, r1
    15da:	c0 68       	ori	r28, 0x80	; 128
    15dc:	d1 50       	subi	r29, 0x01	; 1
	} 
	while( --i );
    15de:	b9 f7       	brne	.-18     	; 0x15ce <ow_byte_wr+0x8>

	return b;
}
    15e0:	8c 2f       	mov	r24, r28
    15e2:	df 91       	pop	r29
    15e4:	cf 91       	pop	r28
    15e6:	08 95       	ret

000015e8 <ow_byte_rd>:

//--------//--------//--------//--------//--------//--------//--------//--------//--------
uint8_t ow_byte_rd( void )
{
  // read by sending 0xff (a dontcare?)
  return ow_byte_wr( 0xFF );
    15e8:	8f ef       	ldi	r24, 0xFF	; 255
    15ea:	0e 94 e3 0a 	call	0x15c6	; 0x15c6 <ow_byte_wr>
}
    15ee:	08 95       	ret

000015f0 <ow_rom_search>:


//--------//--------//--------//--------//--------//--------//--------//--------//--------
uint8_t ow_rom_search( uint8_t diff, uint8_t *id )
{
    15f0:	df 92       	push	r13
    15f2:	ef 92       	push	r14
    15f4:	ff 92       	push	r15
    15f6:	0f 93       	push	r16
    15f8:	1f 93       	push	r17
    15fa:	cf 93       	push	r28
    15fc:	df 93       	push	r29
    15fe:	d8 2e       	mov	r13, r24
    1600:	8b 01       	movw	r16, r22
	uint8_t i, j, next_diff;
	uint8_t b;

	if( ow_reset() ) 
    1602:	0e 94 b5 0a 	call	0x156a	; 0x156a <ow_reset>
    1606:	81 11       	cpse	r24, r1
    1608:	2b c0       	rjmp	.+86     	; 0x1660 <ow_rom_search+0x70>
	{
		return OW_PRESENCE_ERR;			// error, no device found
	}

	ow_byte_wr( OW_SEARCH_ROM );		// ROM search command
    160a:	80 ef       	ldi	r24, 0xF0	; 240
    160c:	0e 94 e3 0a 	call	0x15c6	; 0x15c6 <ow_byte_wr>
	next_diff = OW_LAST_DEVICE;			// unchanged on last device
    1610:	e1 2c       	mov	r14, r1

	i = OW_ROMCODE_SIZE * 8;			// 8 bytes
    1612:	c0 e4       	ldi	r28, 0x40	; 64
    1614:	0f 2e       	mov	r0, r31
    1616:	f8 ef       	ldi	r31, 0xF8	; 248
    1618:	ff 2e       	mov	r15, r31
    161a:	f0 2d       	mov	r31, r0
    161c:	fc 0e       	add	r15, r28

	do 
	{
		j = 8;							// 8 bits
		do {
			b = ow_bit_io( 1 );			// read bit
    161e:	81 e0       	ldi	r24, 0x01	; 1
    1620:	0e 94 cf 0a 	call	0x159e	; 0x159e <ow_bit_io>
    1624:	d8 2f       	mov	r29, r24
			if( ow_bit_io( 1 ) ) 
    1626:	81 e0       	ldi	r24, 0x01	; 1
    1628:	0e 94 cf 0a 	call	0x159e	; 0x159e <ow_bit_io>
    162c:	88 23       	and	r24, r24
    162e:	19 f0       	breq	.+6      	; 0x1636 <ow_rom_search+0x46>
			{							// read complement bit
				if( b )					// 11
    1630:	dd 23       	and	r29, r29
    1632:	d1 f0       	breq	.+52     	; 0x1668 <ow_rom_search+0x78>
    1634:	17 c0       	rjmp	.+46     	; 0x1664 <ow_rom_search+0x74>
				return OW_DATA_ERR;		// data error
			}
			else 
			{
				if( !b ) 
    1636:	d1 11       	cpse	r29, r1
    1638:	24 c0       	rjmp	.+72     	; 0x1682 <ow_rom_search+0x92>
				{						// 00 = 2 devices
					if( diff > i || ((*id & 1) && diff != i) )
    163a:	cd 15       	cp	r28, r13
    163c:	e8 f0       	brcs	.+58     	; 0x1678 <ow_rom_search+0x88>
    163e:	f8 01       	movw	r30, r16
    1640:	80 81       	ld	r24, Z
    1642:	80 ff       	sbrs	r24, 0
    1644:	11 c0       	rjmp	.+34     	; 0x1668 <ow_rom_search+0x78>
    1646:	dc 12       	cpse	r13, r28
    1648:	1a c0       	rjmp	.+52     	; 0x167e <ow_rom_search+0x8e>
    164a:	0e c0       	rjmp	.+28     	; 0x1668 <ow_rom_search+0x78>
			}
			ow_bit_io( b );     		// write bit
			*id >>= 1;
			if( b ) *id |= 0x80;		// store bit

			i--;
    164c:	c1 50       	subi	r28, 0x01	; 1

		} while( --j );
    164e:	cf 11       	cpse	r28, r15
    1650:	e6 cf       	rjmp	.-52     	; 0x161e <ow_rom_search+0x2e>

		id++;							// next byte
    1652:	0f 5f       	subi	r16, 0xFF	; 255
    1654:	1f 4f       	sbci	r17, 0xFF	; 255
			}
			ow_bit_io( b );     		// write bit
			*id >>= 1;
			if( b ) *id |= 0x80;		// store bit

			i--;
    1656:	cf 2d       	mov	r28, r15

		} while( --j );

		id++;							// next byte

	} while( i );
    1658:	f1 10       	cpse	r15, r1
    165a:	dc cf       	rjmp	.-72     	; 0x1614 <ow_rom_search+0x24>
    165c:	8e 2d       	mov	r24, r14
    165e:	1a c0       	rjmp	.+52     	; 0x1694 <ow_rom_search+0xa4>
	uint8_t i, j, next_diff;
	uint8_t b;

	if( ow_reset() ) 
	{
		return OW_PRESENCE_ERR;			// error, no device found
    1660:	8f ef       	ldi	r24, 0xFF	; 255
    1662:	18 c0       	rjmp	.+48     	; 0x1694 <ow_rom_search+0xa4>
		do {
			b = ow_bit_io( 1 );			// read bit
			if( ow_bit_io( 1 ) ) 
			{							// read complement bit
				if( b )					// 11
				return OW_DATA_ERR;		// data error
    1664:	8e ef       	ldi	r24, 0xFE	; 254
    1666:	16 c0       	rjmp	.+44     	; 0x1694 <ow_rom_search+0xa4>
						b = 1;			// now 1
						next_diff = i;	// next pass 0
					}
				}
			}
			ow_bit_io( b );     		// write bit
    1668:	80 e0       	ldi	r24, 0x00	; 0
    166a:	0e 94 cf 0a 	call	0x159e	; 0x159e <ow_bit_io>
			*id >>= 1;
    166e:	f8 01       	movw	r30, r16
    1670:	90 81       	ld	r25, Z
    1672:	96 95       	lsr	r25
    1674:	90 83       	st	Z, r25
    1676:	ea cf       	rjmp	.-44     	; 0x164c <ow_rom_search+0x5c>
				if( !b ) 
				{						// 00 = 2 devices
					if( diff > i || ((*id & 1) && diff != i) )
					{
						b = 1;			// now 1
						next_diff = i;	// next pass 0
    1678:	ec 2e       	mov	r14, r28
			{
				if( !b ) 
				{						// 00 = 2 devices
					if( diff > i || ((*id & 1) && diff != i) )
					{
						b = 1;			// now 1
    167a:	d1 e0       	ldi	r29, 0x01	; 1
    167c:	02 c0       	rjmp	.+4      	; 0x1682 <ow_rom_search+0x92>
						next_diff = i;	// next pass 0
    167e:	ec 2e       	mov	r14, r28
			{
				if( !b ) 
				{						// 00 = 2 devices
					if( diff > i || ((*id & 1) && diff != i) )
					{
						b = 1;			// now 1
    1680:	d1 e0       	ldi	r29, 0x01	; 1
						next_diff = i;	// next pass 0
					}
				}
			}
			ow_bit_io( b );     		// write bit
    1682:	8d 2f       	mov	r24, r29
    1684:	0e 94 cf 0a 	call	0x159e	; 0x159e <ow_bit_io>
			*id >>= 1;
    1688:	f8 01       	movw	r30, r16
    168a:	90 81       	ld	r25, Z
    168c:	96 95       	lsr	r25
			if( b ) *id |= 0x80;		// store bit
    168e:	90 68       	ori	r25, 0x80	; 128
    1690:	90 83       	st	Z, r25
    1692:	dc cf       	rjmp	.-72     	; 0x164c <ow_rom_search+0x5c>
		id++;							// next byte

	} while( i );

	return next_diff;					// to continue search
}
    1694:	df 91       	pop	r29
    1696:	cf 91       	pop	r28
    1698:	1f 91       	pop	r17
    169a:	0f 91       	pop	r16
    169c:	ff 90       	pop	r15
    169e:	ef 90       	pop	r14
    16a0:	df 90       	pop	r13
    16a2:	08 95       	ret

000016a4 <ow_command>:


//--------//--------//--------//--------//--------//--------//--------//--------//--------
void ow_command( uint8_t command, uint8_t *id )
{
    16a4:	ff 92       	push	r15
    16a6:	0f 93       	push	r16
    16a8:	1f 93       	push	r17
    16aa:	cf 93       	push	r28
    16ac:	df 93       	push	r29
    16ae:	f8 2e       	mov	r15, r24
    16b0:	eb 01       	movw	r28, r22
	uint8_t i;

	ow_reset();
    16b2:	0e 94 b5 0a 	call	0x156a	; 0x156a <ow_reset>

	if( id ) 
    16b6:	20 97       	sbiw	r28, 0x00	; 0
    16b8:	69 f0       	breq	.+26     	; 0x16d4 <ow_command+0x30>
	{
		ow_byte_wr( OW_MATCH_ROM );		// to a single device
    16ba:	85 e5       	ldi	r24, 0x55	; 85
    16bc:	0e 94 e3 0a 	call	0x15c6	; 0x15c6 <ow_byte_wr>
    16c0:	8e 01       	movw	r16, r28
    16c2:	08 5f       	subi	r16, 0xF8	; 248
    16c4:	1f 4f       	sbci	r17, 0xFF	; 255
		i = OW_ROMCODE_SIZE;
		do 
		{
			ow_byte_wr( *id );
    16c6:	89 91       	ld	r24, Y+
    16c8:	0e 94 e3 0a 	call	0x15c6	; 0x15c6 <ow_byte_wr>
			id++;
		} while( --i );
    16cc:	c0 17       	cp	r28, r16
    16ce:	d1 07       	cpc	r29, r17
    16d0:	d1 f7       	brne	.-12     	; 0x16c6 <ow_command+0x22>
    16d2:	03 c0       	rjmp	.+6      	; 0x16da <ow_command+0x36>
	}
	else 
	{
		ow_byte_wr( OW_SKIP_ROM );		// to all devices
    16d4:	8c ec       	ldi	r24, 0xCC	; 204
    16d6:	0e 94 e3 0a 	call	0x15c6	; 0x15c6 <ow_byte_wr>
	}

	ow_byte_wr( command );
    16da:	8f 2d       	mov	r24, r15
    16dc:	0e 94 e3 0a 	call	0x15c6	; 0x15c6 <ow_byte_wr>
}
    16e0:	df 91       	pop	r29
    16e2:	cf 91       	pop	r28
    16e4:	1f 91       	pop	r17
    16e6:	0f 91       	pop	r16
    16e8:	ff 90       	pop	r15
    16ea:	08 95       	ret

000016ec <__divsf3>:
    16ec:	0e 94 8a 0b 	call	0x1714	; 0x1714 <__divsf3x>
    16f0:	0c 94 fc 0c 	jmp	0x19f8	; 0x19f8 <__fp_round>
    16f4:	0e 94 f5 0c 	call	0x19ea	; 0x19ea <__fp_pscB>
    16f8:	58 f0       	brcs	.+22     	; 0x1710 <__divsf3+0x24>
    16fa:	0e 94 ee 0c 	call	0x19dc	; 0x19dc <__fp_pscA>
    16fe:	40 f0       	brcs	.+16     	; 0x1710 <__divsf3+0x24>
    1700:	29 f4       	brne	.+10     	; 0x170c <__divsf3+0x20>
    1702:	5f 3f       	cpi	r21, 0xFF	; 255
    1704:	29 f0       	breq	.+10     	; 0x1710 <__divsf3+0x24>
    1706:	0c 94 d5 0c 	jmp	0x19aa	; 0x19aa <__fp_inf>
    170a:	51 11       	cpse	r21, r1
    170c:	0c 94 30 0d 	jmp	0x1a60	; 0x1a60 <__fp_szero>
    1710:	0c 94 db 0c 	jmp	0x19b6	; 0x19b6 <__fp_nan>

00001714 <__divsf3x>:
    1714:	0e 94 0d 0d 	call	0x1a1a	; 0x1a1a <__fp_split3>
    1718:	68 f3       	brcs	.-38     	; 0x16f4 <__divsf3+0x8>

0000171a <__divsf3_pse>:
    171a:	99 23       	and	r25, r25
    171c:	b1 f3       	breq	.-20     	; 0x170a <__divsf3+0x1e>
    171e:	55 23       	and	r21, r21
    1720:	91 f3       	breq	.-28     	; 0x1706 <__divsf3+0x1a>
    1722:	95 1b       	sub	r25, r21
    1724:	55 0b       	sbc	r21, r21
    1726:	bb 27       	eor	r27, r27
    1728:	aa 27       	eor	r26, r26
    172a:	62 17       	cp	r22, r18
    172c:	73 07       	cpc	r23, r19
    172e:	84 07       	cpc	r24, r20
    1730:	38 f0       	brcs	.+14     	; 0x1740 <__divsf3_pse+0x26>
    1732:	9f 5f       	subi	r25, 0xFF	; 255
    1734:	5f 4f       	sbci	r21, 0xFF	; 255
    1736:	22 0f       	add	r18, r18
    1738:	33 1f       	adc	r19, r19
    173a:	44 1f       	adc	r20, r20
    173c:	aa 1f       	adc	r26, r26
    173e:	a9 f3       	breq	.-22     	; 0x172a <__divsf3_pse+0x10>
    1740:	35 d0       	rcall	.+106    	; 0x17ac <__divsf3_pse+0x92>
    1742:	0e 2e       	mov	r0, r30
    1744:	3a f0       	brmi	.+14     	; 0x1754 <__divsf3_pse+0x3a>
    1746:	e0 e8       	ldi	r30, 0x80	; 128
    1748:	32 d0       	rcall	.+100    	; 0x17ae <__divsf3_pse+0x94>
    174a:	91 50       	subi	r25, 0x01	; 1
    174c:	50 40       	sbci	r21, 0x00	; 0
    174e:	e6 95       	lsr	r30
    1750:	00 1c       	adc	r0, r0
    1752:	ca f7       	brpl	.-14     	; 0x1746 <__divsf3_pse+0x2c>
    1754:	2b d0       	rcall	.+86     	; 0x17ac <__divsf3_pse+0x92>
    1756:	fe 2f       	mov	r31, r30
    1758:	29 d0       	rcall	.+82     	; 0x17ac <__divsf3_pse+0x92>
    175a:	66 0f       	add	r22, r22
    175c:	77 1f       	adc	r23, r23
    175e:	88 1f       	adc	r24, r24
    1760:	bb 1f       	adc	r27, r27
    1762:	26 17       	cp	r18, r22
    1764:	37 07       	cpc	r19, r23
    1766:	48 07       	cpc	r20, r24
    1768:	ab 07       	cpc	r26, r27
    176a:	b0 e8       	ldi	r27, 0x80	; 128
    176c:	09 f0       	breq	.+2      	; 0x1770 <__divsf3_pse+0x56>
    176e:	bb 0b       	sbc	r27, r27
    1770:	80 2d       	mov	r24, r0
    1772:	bf 01       	movw	r22, r30
    1774:	ff 27       	eor	r31, r31
    1776:	93 58       	subi	r25, 0x83	; 131
    1778:	5f 4f       	sbci	r21, 0xFF	; 255
    177a:	3a f0       	brmi	.+14     	; 0x178a <__divsf3_pse+0x70>
    177c:	9e 3f       	cpi	r25, 0xFE	; 254
    177e:	51 05       	cpc	r21, r1
    1780:	78 f0       	brcs	.+30     	; 0x17a0 <__divsf3_pse+0x86>
    1782:	0c 94 d5 0c 	jmp	0x19aa	; 0x19aa <__fp_inf>
    1786:	0c 94 30 0d 	jmp	0x1a60	; 0x1a60 <__fp_szero>
    178a:	5f 3f       	cpi	r21, 0xFF	; 255
    178c:	e4 f3       	brlt	.-8      	; 0x1786 <__divsf3_pse+0x6c>
    178e:	98 3e       	cpi	r25, 0xE8	; 232
    1790:	d4 f3       	brlt	.-12     	; 0x1786 <__divsf3_pse+0x6c>
    1792:	86 95       	lsr	r24
    1794:	77 95       	ror	r23
    1796:	67 95       	ror	r22
    1798:	b7 95       	ror	r27
    179a:	f7 95       	ror	r31
    179c:	9f 5f       	subi	r25, 0xFF	; 255
    179e:	c9 f7       	brne	.-14     	; 0x1792 <__divsf3_pse+0x78>
    17a0:	88 0f       	add	r24, r24
    17a2:	91 1d       	adc	r25, r1
    17a4:	96 95       	lsr	r25
    17a6:	87 95       	ror	r24
    17a8:	97 f9       	bld	r25, 7
    17aa:	08 95       	ret
    17ac:	e1 e0       	ldi	r30, 0x01	; 1
    17ae:	66 0f       	add	r22, r22
    17b0:	77 1f       	adc	r23, r23
    17b2:	88 1f       	adc	r24, r24
    17b4:	bb 1f       	adc	r27, r27
    17b6:	62 17       	cp	r22, r18
    17b8:	73 07       	cpc	r23, r19
    17ba:	84 07       	cpc	r24, r20
    17bc:	ba 07       	cpc	r27, r26
    17be:	20 f0       	brcs	.+8      	; 0x17c8 <__divsf3_pse+0xae>
    17c0:	62 1b       	sub	r22, r18
    17c2:	73 0b       	sbc	r23, r19
    17c4:	84 0b       	sbc	r24, r20
    17c6:	ba 0b       	sbc	r27, r26
    17c8:	ee 1f       	adc	r30, r30
    17ca:	88 f7       	brcc	.-30     	; 0x17ae <__divsf3_pse+0x94>
    17cc:	e0 95       	com	r30
    17ce:	08 95       	ret

000017d0 <__fixsfdi>:
    17d0:	be e3       	ldi	r27, 0x3E	; 62
    17d2:	04 d0       	rcall	.+8      	; 0x17dc <__fixunssfdi+0x2>
    17d4:	08 f4       	brcc	.+2      	; 0x17d8 <__fixsfdi+0x8>
    17d6:	90 e8       	ldi	r25, 0x80	; 128
    17d8:	08 95       	ret

000017da <__fixunssfdi>:
    17da:	bf e3       	ldi	r27, 0x3F	; 63
    17dc:	22 27       	eor	r18, r18
    17de:	33 27       	eor	r19, r19
    17e0:	a9 01       	movw	r20, r18
    17e2:	0e 94 15 0d 	call	0x1a2a	; 0x1a2a <__fp_splitA>
    17e6:	60 f1       	brcs	.+88     	; 0x1840 <__fixunssfdi+0x66>
    17e8:	9f 57       	subi	r25, 0x7F	; 127
    17ea:	48 f1       	brcs	.+82     	; 0x183e <__fixunssfdi+0x64>
    17ec:	b9 17       	cp	r27, r25
    17ee:	40 f1       	brcs	.+80     	; 0x1840 <__fixunssfdi+0x66>
    17f0:	bf e3       	ldi	r27, 0x3F	; 63
    17f2:	b9 1b       	sub	r27, r25
    17f4:	99 27       	eor	r25, r25
    17f6:	b8 50       	subi	r27, 0x08	; 8
    17f8:	3a f4       	brpl	.+14     	; 0x1808 <__fixunssfdi+0x2e>
    17fa:	66 0f       	add	r22, r22
    17fc:	77 1f       	adc	r23, r23
    17fe:	88 1f       	adc	r24, r24
    1800:	99 1f       	adc	r25, r25
    1802:	b3 95       	inc	r27
    1804:	d2 f3       	brmi	.-12     	; 0x17fa <__fixunssfdi+0x20>
    1806:	16 c0       	rjmp	.+44     	; 0x1834 <__fixunssfdi+0x5a>
    1808:	b8 50       	subi	r27, 0x08	; 8
    180a:	4a f0       	brmi	.+18     	; 0x181e <__fixunssfdi+0x44>
    180c:	23 2f       	mov	r18, r19
    180e:	34 2f       	mov	r19, r20
    1810:	45 2f       	mov	r20, r21
    1812:	56 2f       	mov	r21, r22
    1814:	67 2f       	mov	r22, r23
    1816:	78 2f       	mov	r23, r24
    1818:	88 27       	eor	r24, r24
    181a:	b8 50       	subi	r27, 0x08	; 8
    181c:	ba f7       	brpl	.-18     	; 0x180c <__fixunssfdi+0x32>
    181e:	b8 5f       	subi	r27, 0xF8	; 248
    1820:	49 f0       	breq	.+18     	; 0x1834 <__fixunssfdi+0x5a>
    1822:	86 95       	lsr	r24
    1824:	77 95       	ror	r23
    1826:	67 95       	ror	r22
    1828:	57 95       	ror	r21
    182a:	47 95       	ror	r20
    182c:	37 95       	ror	r19
    182e:	27 95       	ror	r18
    1830:	ba 95       	dec	r27
    1832:	b9 f7       	brne	.-18     	; 0x1822 <__fixunssfdi+0x48>
    1834:	16 f4       	brtc	.+4      	; 0x183a <__fixunssfdi+0x60>
    1836:	0e 94 de 0c 	call	0x19bc	; 0x19bc <__fp_negdi>
    183a:	88 94       	clc
    183c:	08 95       	ret
    183e:	88 94       	clc
    1840:	60 e0       	ldi	r22, 0x00	; 0
    1842:	70 e0       	ldi	r23, 0x00	; 0
    1844:	cb 01       	movw	r24, r22
    1846:	08 95       	ret

00001848 <__fixsfsi>:
    1848:	0e 94 2b 0c 	call	0x1856	; 0x1856 <__fixunssfsi>
    184c:	68 94       	set
    184e:	b1 11       	cpse	r27, r1
    1850:	0c 94 30 0d 	jmp	0x1a60	; 0x1a60 <__fp_szero>
    1854:	08 95       	ret

00001856 <__fixunssfsi>:
    1856:	0e 94 15 0d 	call	0x1a2a	; 0x1a2a <__fp_splitA>
    185a:	88 f0       	brcs	.+34     	; 0x187e <__fixunssfsi+0x28>
    185c:	9f 57       	subi	r25, 0x7F	; 127
    185e:	98 f0       	brcs	.+38     	; 0x1886 <__fixunssfsi+0x30>
    1860:	b9 2f       	mov	r27, r25
    1862:	99 27       	eor	r25, r25
    1864:	b7 51       	subi	r27, 0x17	; 23
    1866:	b0 f0       	brcs	.+44     	; 0x1894 <__fixunssfsi+0x3e>
    1868:	e1 f0       	breq	.+56     	; 0x18a2 <__fixunssfsi+0x4c>
    186a:	66 0f       	add	r22, r22
    186c:	77 1f       	adc	r23, r23
    186e:	88 1f       	adc	r24, r24
    1870:	99 1f       	adc	r25, r25
    1872:	1a f0       	brmi	.+6      	; 0x187a <__fixunssfsi+0x24>
    1874:	ba 95       	dec	r27
    1876:	c9 f7       	brne	.-14     	; 0x186a <__fixunssfsi+0x14>
    1878:	14 c0       	rjmp	.+40     	; 0x18a2 <__fixunssfsi+0x4c>
    187a:	b1 30       	cpi	r27, 0x01	; 1
    187c:	91 f0       	breq	.+36     	; 0x18a2 <__fixunssfsi+0x4c>
    187e:	0e 94 2f 0d 	call	0x1a5e	; 0x1a5e <__fp_zero>
    1882:	b1 e0       	ldi	r27, 0x01	; 1
    1884:	08 95       	ret
    1886:	0c 94 2f 0d 	jmp	0x1a5e	; 0x1a5e <__fp_zero>
    188a:	67 2f       	mov	r22, r23
    188c:	78 2f       	mov	r23, r24
    188e:	88 27       	eor	r24, r24
    1890:	b8 5f       	subi	r27, 0xF8	; 248
    1892:	39 f0       	breq	.+14     	; 0x18a2 <__fixunssfsi+0x4c>
    1894:	b9 3f       	cpi	r27, 0xF9	; 249
    1896:	cc f3       	brlt	.-14     	; 0x188a <__fixunssfsi+0x34>
    1898:	86 95       	lsr	r24
    189a:	77 95       	ror	r23
    189c:	67 95       	ror	r22
    189e:	b3 95       	inc	r27
    18a0:	d9 f7       	brne	.-10     	; 0x1898 <__fixunssfsi+0x42>
    18a2:	3e f4       	brtc	.+14     	; 0x18b2 <__fixunssfsi+0x5c>
    18a4:	90 95       	com	r25
    18a6:	80 95       	com	r24
    18a8:	70 95       	com	r23
    18aa:	61 95       	neg	r22
    18ac:	7f 4f       	sbci	r23, 0xFF	; 255
    18ae:	8f 4f       	sbci	r24, 0xFF	; 255
    18b0:	9f 4f       	sbci	r25, 0xFF	; 255
    18b2:	08 95       	ret

000018b4 <__floatunsisf>:
    18b4:	e8 94       	clt
    18b6:	09 c0       	rjmp	.+18     	; 0x18ca <__floatsisf+0x12>

000018b8 <__floatsisf>:
    18b8:	97 fb       	bst	r25, 7
    18ba:	3e f4       	brtc	.+14     	; 0x18ca <__floatsisf+0x12>
    18bc:	90 95       	com	r25
    18be:	80 95       	com	r24
    18c0:	70 95       	com	r23
    18c2:	61 95       	neg	r22
    18c4:	7f 4f       	sbci	r23, 0xFF	; 255
    18c6:	8f 4f       	sbci	r24, 0xFF	; 255
    18c8:	9f 4f       	sbci	r25, 0xFF	; 255
    18ca:	99 23       	and	r25, r25
    18cc:	a9 f0       	breq	.+42     	; 0x18f8 <__floatsisf+0x40>
    18ce:	f9 2f       	mov	r31, r25
    18d0:	96 e9       	ldi	r25, 0x96	; 150
    18d2:	bb 27       	eor	r27, r27
    18d4:	93 95       	inc	r25
    18d6:	f6 95       	lsr	r31
    18d8:	87 95       	ror	r24
    18da:	77 95       	ror	r23
    18dc:	67 95       	ror	r22
    18de:	b7 95       	ror	r27
    18e0:	f1 11       	cpse	r31, r1
    18e2:	f8 cf       	rjmp	.-16     	; 0x18d4 <__floatsisf+0x1c>
    18e4:	fa f4       	brpl	.+62     	; 0x1924 <__floatsisf+0x6c>
    18e6:	bb 0f       	add	r27, r27
    18e8:	11 f4       	brne	.+4      	; 0x18ee <__floatsisf+0x36>
    18ea:	60 ff       	sbrs	r22, 0
    18ec:	1b c0       	rjmp	.+54     	; 0x1924 <__floatsisf+0x6c>
    18ee:	6f 5f       	subi	r22, 0xFF	; 255
    18f0:	7f 4f       	sbci	r23, 0xFF	; 255
    18f2:	8f 4f       	sbci	r24, 0xFF	; 255
    18f4:	9f 4f       	sbci	r25, 0xFF	; 255
    18f6:	16 c0       	rjmp	.+44     	; 0x1924 <__floatsisf+0x6c>
    18f8:	88 23       	and	r24, r24
    18fa:	11 f0       	breq	.+4      	; 0x1900 <__floatsisf+0x48>
    18fc:	96 e9       	ldi	r25, 0x96	; 150
    18fe:	11 c0       	rjmp	.+34     	; 0x1922 <__floatsisf+0x6a>
    1900:	77 23       	and	r23, r23
    1902:	21 f0       	breq	.+8      	; 0x190c <__floatsisf+0x54>
    1904:	9e e8       	ldi	r25, 0x8E	; 142
    1906:	87 2f       	mov	r24, r23
    1908:	76 2f       	mov	r23, r22
    190a:	05 c0       	rjmp	.+10     	; 0x1916 <__floatsisf+0x5e>
    190c:	66 23       	and	r22, r22
    190e:	71 f0       	breq	.+28     	; 0x192c <__floatsisf+0x74>
    1910:	96 e8       	ldi	r25, 0x86	; 134
    1912:	86 2f       	mov	r24, r22
    1914:	70 e0       	ldi	r23, 0x00	; 0
    1916:	60 e0       	ldi	r22, 0x00	; 0
    1918:	2a f0       	brmi	.+10     	; 0x1924 <__floatsisf+0x6c>
    191a:	9a 95       	dec	r25
    191c:	66 0f       	add	r22, r22
    191e:	77 1f       	adc	r23, r23
    1920:	88 1f       	adc	r24, r24
    1922:	da f7       	brpl	.-10     	; 0x191a <__floatsisf+0x62>
    1924:	88 0f       	add	r24, r24
    1926:	96 95       	lsr	r25
    1928:	87 95       	ror	r24
    192a:	97 f9       	bld	r25, 7
    192c:	08 95       	ret

0000192e <__floatundisf>:
    192e:	e8 94       	clt

00001930 <__fp_di2sf>:
    1930:	f9 2f       	mov	r31, r25
    1932:	96 eb       	ldi	r25, 0xB6	; 182
    1934:	ff 23       	and	r31, r31
    1936:	81 f0       	breq	.+32     	; 0x1958 <__fp_di2sf+0x28>
    1938:	12 16       	cp	r1, r18
    193a:	13 06       	cpc	r1, r19
    193c:	14 06       	cpc	r1, r20
    193e:	44 0b       	sbc	r20, r20
    1940:	93 95       	inc	r25
    1942:	f6 95       	lsr	r31
    1944:	87 95       	ror	r24
    1946:	77 95       	ror	r23
    1948:	67 95       	ror	r22
    194a:	57 95       	ror	r21
    194c:	40 40       	sbci	r20, 0x00	; 0
    194e:	ff 23       	and	r31, r31
    1950:	b9 f7       	brne	.-18     	; 0x1940 <__fp_di2sf+0x10>
    1952:	1b c0       	rjmp	.+54     	; 0x198a <__fp_di2sf+0x5a>
    1954:	99 27       	eor	r25, r25
    1956:	08 95       	ret
    1958:	88 23       	and	r24, r24
    195a:	51 f4       	brne	.+20     	; 0x1970 <__fp_di2sf+0x40>
    195c:	98 50       	subi	r25, 0x08	; 8
    195e:	d2 f7       	brpl	.-12     	; 0x1954 <__fp_di2sf+0x24>
    1960:	87 2b       	or	r24, r23
    1962:	76 2f       	mov	r23, r22
    1964:	65 2f       	mov	r22, r21
    1966:	54 2f       	mov	r21, r20
    1968:	43 2f       	mov	r20, r19
    196a:	32 2f       	mov	r19, r18
    196c:	20 e0       	ldi	r18, 0x00	; 0
    196e:	b1 f3       	breq	.-20     	; 0x195c <__fp_di2sf+0x2c>
    1970:	12 16       	cp	r1, r18
    1972:	13 06       	cpc	r1, r19
    1974:	14 06       	cpc	r1, r20
    1976:	44 0b       	sbc	r20, r20
    1978:	88 23       	and	r24, r24
    197a:	3a f0       	brmi	.+14     	; 0x198a <__fp_di2sf+0x5a>
    197c:	9a 95       	dec	r25
    197e:	44 0f       	add	r20, r20
    1980:	55 1f       	adc	r21, r21
    1982:	66 1f       	adc	r22, r22
    1984:	77 1f       	adc	r23, r23
    1986:	88 1f       	adc	r24, r24
    1988:	ca f7       	brpl	.-14     	; 0x197c <__fp_di2sf+0x4c>
    198a:	55 23       	and	r21, r21
    198c:	4a f4       	brpl	.+18     	; 0x19a0 <__fp_di2sf+0x70>
    198e:	44 0f       	add	r20, r20
    1990:	55 1f       	adc	r21, r21
    1992:	11 f4       	brne	.+4      	; 0x1998 <__fp_di2sf+0x68>
    1994:	60 ff       	sbrs	r22, 0
    1996:	04 c0       	rjmp	.+8      	; 0x19a0 <__fp_di2sf+0x70>
    1998:	6f 5f       	subi	r22, 0xFF	; 255
    199a:	7f 4f       	sbci	r23, 0xFF	; 255
    199c:	8f 4f       	sbci	r24, 0xFF	; 255
    199e:	9f 4f       	sbci	r25, 0xFF	; 255
    19a0:	88 0f       	add	r24, r24
    19a2:	96 95       	lsr	r25
    19a4:	87 95       	ror	r24
    19a6:	97 f9       	bld	r25, 7
    19a8:	08 95       	ret

000019aa <__fp_inf>:
    19aa:	97 f9       	bld	r25, 7
    19ac:	9f 67       	ori	r25, 0x7F	; 127
    19ae:	80 e8       	ldi	r24, 0x80	; 128
    19b0:	70 e0       	ldi	r23, 0x00	; 0
    19b2:	60 e0       	ldi	r22, 0x00	; 0
    19b4:	08 95       	ret

000019b6 <__fp_nan>:
    19b6:	9f ef       	ldi	r25, 0xFF	; 255
    19b8:	80 ec       	ldi	r24, 0xC0	; 192
    19ba:	08 95       	ret

000019bc <__fp_negdi>:
    19bc:	90 95       	com	r25
    19be:	80 95       	com	r24
    19c0:	70 95       	com	r23
    19c2:	60 95       	com	r22
    19c4:	50 95       	com	r21
    19c6:	40 95       	com	r20
    19c8:	30 95       	com	r19
    19ca:	21 95       	neg	r18
    19cc:	3f 4f       	sbci	r19, 0xFF	; 255
    19ce:	4f 4f       	sbci	r20, 0xFF	; 255
    19d0:	5f 4f       	sbci	r21, 0xFF	; 255
    19d2:	6f 4f       	sbci	r22, 0xFF	; 255
    19d4:	7f 4f       	sbci	r23, 0xFF	; 255
    19d6:	8f 4f       	sbci	r24, 0xFF	; 255
    19d8:	9f 4f       	sbci	r25, 0xFF	; 255
    19da:	08 95       	ret

000019dc <__fp_pscA>:
    19dc:	00 24       	eor	r0, r0
    19de:	0a 94       	dec	r0
    19e0:	16 16       	cp	r1, r22
    19e2:	17 06       	cpc	r1, r23
    19e4:	18 06       	cpc	r1, r24
    19e6:	09 06       	cpc	r0, r25
    19e8:	08 95       	ret

000019ea <__fp_pscB>:
    19ea:	00 24       	eor	r0, r0
    19ec:	0a 94       	dec	r0
    19ee:	12 16       	cp	r1, r18
    19f0:	13 06       	cpc	r1, r19
    19f2:	14 06       	cpc	r1, r20
    19f4:	05 06       	cpc	r0, r21
    19f6:	08 95       	ret

000019f8 <__fp_round>:
    19f8:	09 2e       	mov	r0, r25
    19fa:	03 94       	inc	r0
    19fc:	00 0c       	add	r0, r0
    19fe:	11 f4       	brne	.+4      	; 0x1a04 <__fp_round+0xc>
    1a00:	88 23       	and	r24, r24
    1a02:	52 f0       	brmi	.+20     	; 0x1a18 <__fp_round+0x20>
    1a04:	bb 0f       	add	r27, r27
    1a06:	40 f4       	brcc	.+16     	; 0x1a18 <__fp_round+0x20>
    1a08:	bf 2b       	or	r27, r31
    1a0a:	11 f4       	brne	.+4      	; 0x1a10 <__fp_round+0x18>
    1a0c:	60 ff       	sbrs	r22, 0
    1a0e:	04 c0       	rjmp	.+8      	; 0x1a18 <__fp_round+0x20>
    1a10:	6f 5f       	subi	r22, 0xFF	; 255
    1a12:	7f 4f       	sbci	r23, 0xFF	; 255
    1a14:	8f 4f       	sbci	r24, 0xFF	; 255
    1a16:	9f 4f       	sbci	r25, 0xFF	; 255
    1a18:	08 95       	ret

00001a1a <__fp_split3>:
    1a1a:	57 fd       	sbrc	r21, 7
    1a1c:	90 58       	subi	r25, 0x80	; 128
    1a1e:	44 0f       	add	r20, r20
    1a20:	55 1f       	adc	r21, r21
    1a22:	59 f0       	breq	.+22     	; 0x1a3a <__fp_splitA+0x10>
    1a24:	5f 3f       	cpi	r21, 0xFF	; 255
    1a26:	71 f0       	breq	.+28     	; 0x1a44 <__fp_splitA+0x1a>
    1a28:	47 95       	ror	r20

00001a2a <__fp_splitA>:
    1a2a:	88 0f       	add	r24, r24
    1a2c:	97 fb       	bst	r25, 7
    1a2e:	99 1f       	adc	r25, r25
    1a30:	61 f0       	breq	.+24     	; 0x1a4a <__fp_splitA+0x20>
    1a32:	9f 3f       	cpi	r25, 0xFF	; 255
    1a34:	79 f0       	breq	.+30     	; 0x1a54 <__fp_splitA+0x2a>
    1a36:	87 95       	ror	r24
    1a38:	08 95       	ret
    1a3a:	12 16       	cp	r1, r18
    1a3c:	13 06       	cpc	r1, r19
    1a3e:	14 06       	cpc	r1, r20
    1a40:	55 1f       	adc	r21, r21
    1a42:	f2 cf       	rjmp	.-28     	; 0x1a28 <__fp_split3+0xe>
    1a44:	46 95       	lsr	r20
    1a46:	f1 df       	rcall	.-30     	; 0x1a2a <__fp_splitA>
    1a48:	08 c0       	rjmp	.+16     	; 0x1a5a <__fp_splitA+0x30>
    1a4a:	16 16       	cp	r1, r22
    1a4c:	17 06       	cpc	r1, r23
    1a4e:	18 06       	cpc	r1, r24
    1a50:	99 1f       	adc	r25, r25
    1a52:	f1 cf       	rjmp	.-30     	; 0x1a36 <__fp_splitA+0xc>
    1a54:	86 95       	lsr	r24
    1a56:	71 05       	cpc	r23, r1
    1a58:	61 05       	cpc	r22, r1
    1a5a:	08 94       	sec
    1a5c:	08 95       	ret

00001a5e <__fp_zero>:
    1a5e:	e8 94       	clt

00001a60 <__fp_szero>:
    1a60:	bb 27       	eor	r27, r27
    1a62:	66 27       	eor	r22, r22
    1a64:	77 27       	eor	r23, r23
    1a66:	cb 01       	movw	r24, r22
    1a68:	97 f9       	bld	r25, 7
    1a6a:	08 95       	ret

00001a6c <__mulsf3>:
    1a6c:	0e 94 49 0d 	call	0x1a92	; 0x1a92 <__mulsf3x>
    1a70:	0c 94 fc 0c 	jmp	0x19f8	; 0x19f8 <__fp_round>
    1a74:	0e 94 ee 0c 	call	0x19dc	; 0x19dc <__fp_pscA>
    1a78:	38 f0       	brcs	.+14     	; 0x1a88 <__mulsf3+0x1c>
    1a7a:	0e 94 f5 0c 	call	0x19ea	; 0x19ea <__fp_pscB>
    1a7e:	20 f0       	brcs	.+8      	; 0x1a88 <__mulsf3+0x1c>
    1a80:	95 23       	and	r25, r21
    1a82:	11 f0       	breq	.+4      	; 0x1a88 <__mulsf3+0x1c>
    1a84:	0c 94 d5 0c 	jmp	0x19aa	; 0x19aa <__fp_inf>
    1a88:	0c 94 db 0c 	jmp	0x19b6	; 0x19b6 <__fp_nan>
    1a8c:	11 24       	eor	r1, r1
    1a8e:	0c 94 30 0d 	jmp	0x1a60	; 0x1a60 <__fp_szero>

00001a92 <__mulsf3x>:
    1a92:	0e 94 0d 0d 	call	0x1a1a	; 0x1a1a <__fp_split3>
    1a96:	70 f3       	brcs	.-36     	; 0x1a74 <__mulsf3+0x8>

00001a98 <__mulsf3_pse>:
    1a98:	95 9f       	mul	r25, r21
    1a9a:	c1 f3       	breq	.-16     	; 0x1a8c <__mulsf3+0x20>
    1a9c:	95 0f       	add	r25, r21
    1a9e:	50 e0       	ldi	r21, 0x00	; 0
    1aa0:	55 1f       	adc	r21, r21
    1aa2:	62 9f       	mul	r22, r18
    1aa4:	f0 01       	movw	r30, r0
    1aa6:	72 9f       	mul	r23, r18
    1aa8:	bb 27       	eor	r27, r27
    1aaa:	f0 0d       	add	r31, r0
    1aac:	b1 1d       	adc	r27, r1
    1aae:	63 9f       	mul	r22, r19
    1ab0:	aa 27       	eor	r26, r26
    1ab2:	f0 0d       	add	r31, r0
    1ab4:	b1 1d       	adc	r27, r1
    1ab6:	aa 1f       	adc	r26, r26
    1ab8:	64 9f       	mul	r22, r20
    1aba:	66 27       	eor	r22, r22
    1abc:	b0 0d       	add	r27, r0
    1abe:	a1 1d       	adc	r26, r1
    1ac0:	66 1f       	adc	r22, r22
    1ac2:	82 9f       	mul	r24, r18
    1ac4:	22 27       	eor	r18, r18
    1ac6:	b0 0d       	add	r27, r0
    1ac8:	a1 1d       	adc	r26, r1
    1aca:	62 1f       	adc	r22, r18
    1acc:	73 9f       	mul	r23, r19
    1ace:	b0 0d       	add	r27, r0
    1ad0:	a1 1d       	adc	r26, r1
    1ad2:	62 1f       	adc	r22, r18
    1ad4:	83 9f       	mul	r24, r19
    1ad6:	a0 0d       	add	r26, r0
    1ad8:	61 1d       	adc	r22, r1
    1ada:	22 1f       	adc	r18, r18
    1adc:	74 9f       	mul	r23, r20
    1ade:	33 27       	eor	r19, r19
    1ae0:	a0 0d       	add	r26, r0
    1ae2:	61 1d       	adc	r22, r1
    1ae4:	23 1f       	adc	r18, r19
    1ae6:	84 9f       	mul	r24, r20
    1ae8:	60 0d       	add	r22, r0
    1aea:	21 1d       	adc	r18, r1
    1aec:	82 2f       	mov	r24, r18
    1aee:	76 2f       	mov	r23, r22
    1af0:	6a 2f       	mov	r22, r26
    1af2:	11 24       	eor	r1, r1
    1af4:	9f 57       	subi	r25, 0x7F	; 127
    1af6:	50 40       	sbci	r21, 0x00	; 0
    1af8:	9a f0       	brmi	.+38     	; 0x1b20 <__mulsf3_pse+0x88>
    1afa:	f1 f0       	breq	.+60     	; 0x1b38 <__mulsf3_pse+0xa0>
    1afc:	88 23       	and	r24, r24
    1afe:	4a f0       	brmi	.+18     	; 0x1b12 <__mulsf3_pse+0x7a>
    1b00:	ee 0f       	add	r30, r30
    1b02:	ff 1f       	adc	r31, r31
    1b04:	bb 1f       	adc	r27, r27
    1b06:	66 1f       	adc	r22, r22
    1b08:	77 1f       	adc	r23, r23
    1b0a:	88 1f       	adc	r24, r24
    1b0c:	91 50       	subi	r25, 0x01	; 1
    1b0e:	50 40       	sbci	r21, 0x00	; 0
    1b10:	a9 f7       	brne	.-22     	; 0x1afc <__mulsf3_pse+0x64>
    1b12:	9e 3f       	cpi	r25, 0xFE	; 254
    1b14:	51 05       	cpc	r21, r1
    1b16:	80 f0       	brcs	.+32     	; 0x1b38 <__mulsf3_pse+0xa0>
    1b18:	0c 94 d5 0c 	jmp	0x19aa	; 0x19aa <__fp_inf>
    1b1c:	0c 94 30 0d 	jmp	0x1a60	; 0x1a60 <__fp_szero>
    1b20:	5f 3f       	cpi	r21, 0xFF	; 255
    1b22:	e4 f3       	brlt	.-8      	; 0x1b1c <__mulsf3_pse+0x84>
    1b24:	98 3e       	cpi	r25, 0xE8	; 232
    1b26:	d4 f3       	brlt	.-12     	; 0x1b1c <__mulsf3_pse+0x84>
    1b28:	86 95       	lsr	r24
    1b2a:	77 95       	ror	r23
    1b2c:	67 95       	ror	r22
    1b2e:	b7 95       	ror	r27
    1b30:	f7 95       	ror	r31
    1b32:	e7 95       	ror	r30
    1b34:	9f 5f       	subi	r25, 0xFF	; 255
    1b36:	c1 f7       	brne	.-16     	; 0x1b28 <__mulsf3_pse+0x90>
    1b38:	fe 2b       	or	r31, r30
    1b3a:	88 0f       	add	r24, r24
    1b3c:	91 1d       	adc	r25, r1
    1b3e:	96 95       	lsr	r25
    1b40:	87 95       	ror	r24
    1b42:	97 f9       	bld	r25, 7
    1b44:	08 95       	ret

00001b46 <__mulsi3>:
    1b46:	db 01       	movw	r26, r22
    1b48:	8f 93       	push	r24
    1b4a:	9f 93       	push	r25
    1b4c:	0e 94 f4 0d 	call	0x1be8	; 0x1be8 <__muluhisi3>
    1b50:	bf 91       	pop	r27
    1b52:	af 91       	pop	r26
    1b54:	a2 9f       	mul	r26, r18
    1b56:	80 0d       	add	r24, r0
    1b58:	91 1d       	adc	r25, r1
    1b5a:	a3 9f       	mul	r26, r19
    1b5c:	90 0d       	add	r25, r0
    1b5e:	b2 9f       	mul	r27, r18
    1b60:	90 0d       	add	r25, r0
    1b62:	11 24       	eor	r1, r1
    1b64:	08 95       	ret

00001b66 <__udivmodsi4>:
    1b66:	a1 e2       	ldi	r26, 0x21	; 33
    1b68:	1a 2e       	mov	r1, r26
    1b6a:	aa 1b       	sub	r26, r26
    1b6c:	bb 1b       	sub	r27, r27
    1b6e:	fd 01       	movw	r30, r26
    1b70:	0d c0       	rjmp	.+26     	; 0x1b8c <__udivmodsi4_ep>

00001b72 <__udivmodsi4_loop>:
    1b72:	aa 1f       	adc	r26, r26
    1b74:	bb 1f       	adc	r27, r27
    1b76:	ee 1f       	adc	r30, r30
    1b78:	ff 1f       	adc	r31, r31
    1b7a:	a2 17       	cp	r26, r18
    1b7c:	b3 07       	cpc	r27, r19
    1b7e:	e4 07       	cpc	r30, r20
    1b80:	f5 07       	cpc	r31, r21
    1b82:	20 f0       	brcs	.+8      	; 0x1b8c <__udivmodsi4_ep>
    1b84:	a2 1b       	sub	r26, r18
    1b86:	b3 0b       	sbc	r27, r19
    1b88:	e4 0b       	sbc	r30, r20
    1b8a:	f5 0b       	sbc	r31, r21

00001b8c <__udivmodsi4_ep>:
    1b8c:	66 1f       	adc	r22, r22
    1b8e:	77 1f       	adc	r23, r23
    1b90:	88 1f       	adc	r24, r24
    1b92:	99 1f       	adc	r25, r25
    1b94:	1a 94       	dec	r1
    1b96:	69 f7       	brne	.-38     	; 0x1b72 <__udivmodsi4_loop>
    1b98:	60 95       	com	r22
    1b9a:	70 95       	com	r23
    1b9c:	80 95       	com	r24
    1b9e:	90 95       	com	r25
    1ba0:	9b 01       	movw	r18, r22
    1ba2:	ac 01       	movw	r20, r24
    1ba4:	bd 01       	movw	r22, r26
    1ba6:	cf 01       	movw	r24, r30
    1ba8:	08 95       	ret

00001baa <__divmodsi4>:
    1baa:	05 2e       	mov	r0, r21
    1bac:	97 fb       	bst	r25, 7
    1bae:	1e f4       	brtc	.+6      	; 0x1bb6 <__divmodsi4+0xc>
    1bb0:	00 94       	com	r0
    1bb2:	0e 94 ec 0d 	call	0x1bd8	; 0x1bd8 <__negsi2>
    1bb6:	57 fd       	sbrc	r21, 7
    1bb8:	07 d0       	rcall	.+14     	; 0x1bc8 <__divmodsi4_neg2>
    1bba:	0e 94 b3 0d 	call	0x1b66	; 0x1b66 <__udivmodsi4>
    1bbe:	07 fc       	sbrc	r0, 7
    1bc0:	03 d0       	rcall	.+6      	; 0x1bc8 <__divmodsi4_neg2>
    1bc2:	4e f4       	brtc	.+18     	; 0x1bd6 <__divmodsi4_exit>
    1bc4:	0c 94 ec 0d 	jmp	0x1bd8	; 0x1bd8 <__negsi2>

00001bc8 <__divmodsi4_neg2>:
    1bc8:	50 95       	com	r21
    1bca:	40 95       	com	r20
    1bcc:	30 95       	com	r19
    1bce:	21 95       	neg	r18
    1bd0:	3f 4f       	sbci	r19, 0xFF	; 255
    1bd2:	4f 4f       	sbci	r20, 0xFF	; 255
    1bd4:	5f 4f       	sbci	r21, 0xFF	; 255

00001bd6 <__divmodsi4_exit>:
    1bd6:	08 95       	ret

00001bd8 <__negsi2>:
    1bd8:	90 95       	com	r25
    1bda:	80 95       	com	r24
    1bdc:	70 95       	com	r23
    1bde:	61 95       	neg	r22
    1be0:	7f 4f       	sbci	r23, 0xFF	; 255
    1be2:	8f 4f       	sbci	r24, 0xFF	; 255
    1be4:	9f 4f       	sbci	r25, 0xFF	; 255
    1be6:	08 95       	ret

00001be8 <__muluhisi3>:
    1be8:	0e 94 10 0e 	call	0x1c20	; 0x1c20 <__umulhisi3>
    1bec:	a5 9f       	mul	r26, r21
    1bee:	90 0d       	add	r25, r0
    1bf0:	b4 9f       	mul	r27, r20
    1bf2:	90 0d       	add	r25, r0
    1bf4:	a4 9f       	mul	r26, r20
    1bf6:	80 0d       	add	r24, r0
    1bf8:	91 1d       	adc	r25, r1
    1bfa:	11 24       	eor	r1, r1
    1bfc:	08 95       	ret

00001bfe <__mulshisi3>:
    1bfe:	b7 ff       	sbrs	r27, 7
    1c00:	0c 94 f4 0d 	jmp	0x1be8	; 0x1be8 <__muluhisi3>

00001c04 <__mulohisi3>:
    1c04:	0e 94 f4 0d 	call	0x1be8	; 0x1be8 <__muluhisi3>
    1c08:	82 1b       	sub	r24, r18
    1c0a:	93 0b       	sbc	r25, r19
    1c0c:	08 95       	ret

00001c0e <__adddi3>:
    1c0e:	2a 0d       	add	r18, r10
    1c10:	3b 1d       	adc	r19, r11
    1c12:	4c 1d       	adc	r20, r12
    1c14:	5d 1d       	adc	r21, r13
    1c16:	6e 1d       	adc	r22, r14
    1c18:	7f 1d       	adc	r23, r15
    1c1a:	80 1f       	adc	r24, r16
    1c1c:	91 1f       	adc	r25, r17
    1c1e:	08 95       	ret

00001c20 <__umulhisi3>:
    1c20:	a2 9f       	mul	r26, r18
    1c22:	b0 01       	movw	r22, r0
    1c24:	b3 9f       	mul	r27, r19
    1c26:	c0 01       	movw	r24, r0
    1c28:	a3 9f       	mul	r26, r19
    1c2a:	70 0d       	add	r23, r0
    1c2c:	81 1d       	adc	r24, r1
    1c2e:	11 24       	eor	r1, r1
    1c30:	91 1d       	adc	r25, r1
    1c32:	b2 9f       	mul	r27, r18
    1c34:	70 0d       	add	r23, r0
    1c36:	81 1d       	adc	r24, r1
    1c38:	11 24       	eor	r1, r1
    1c3a:	91 1d       	adc	r25, r1
    1c3c:	08 95       	ret

00001c3e <strcat>:
    1c3e:	fb 01       	movw	r30, r22
    1c40:	dc 01       	movw	r26, r24
    1c42:	0d 90       	ld	r0, X+
    1c44:	00 20       	and	r0, r0
    1c46:	e9 f7       	brne	.-6      	; 0x1c42 <strcat+0x4>
    1c48:	11 97       	sbiw	r26, 0x01	; 1
    1c4a:	01 90       	ld	r0, Z+
    1c4c:	0d 92       	st	X+, r0
    1c4e:	00 20       	and	r0, r0
    1c50:	e1 f7       	brne	.-8      	; 0x1c4a <strcat+0xc>
    1c52:	08 95       	ret

00001c54 <strcpy>:
    1c54:	fb 01       	movw	r30, r22
    1c56:	dc 01       	movw	r26, r24
    1c58:	01 90       	ld	r0, Z+
    1c5a:	0d 92       	st	X+, r0
    1c5c:	00 20       	and	r0, r0
    1c5e:	e1 f7       	brne	.-8      	; 0x1c58 <strcpy+0x4>
    1c60:	08 95       	ret

00001c62 <__itoa_ncheck>:
    1c62:	bb 27       	eor	r27, r27
    1c64:	4a 30       	cpi	r20, 0x0A	; 10
    1c66:	31 f4       	brne	.+12     	; 0x1c74 <__itoa_ncheck+0x12>
    1c68:	99 23       	and	r25, r25
    1c6a:	22 f4       	brpl	.+8      	; 0x1c74 <__itoa_ncheck+0x12>
    1c6c:	bd e2       	ldi	r27, 0x2D	; 45
    1c6e:	90 95       	com	r25
    1c70:	81 95       	neg	r24
    1c72:	9f 4f       	sbci	r25, 0xFF	; 255
    1c74:	0c 94 3d 0e 	jmp	0x1c7a	; 0x1c7a <__utoa_common>

00001c78 <__utoa_ncheck>:
    1c78:	bb 27       	eor	r27, r27

00001c7a <__utoa_common>:
    1c7a:	fb 01       	movw	r30, r22
    1c7c:	55 27       	eor	r21, r21
    1c7e:	aa 27       	eor	r26, r26
    1c80:	88 0f       	add	r24, r24
    1c82:	99 1f       	adc	r25, r25
    1c84:	aa 1f       	adc	r26, r26
    1c86:	a4 17       	cp	r26, r20
    1c88:	10 f0       	brcs	.+4      	; 0x1c8e <__utoa_common+0x14>
    1c8a:	a4 1b       	sub	r26, r20
    1c8c:	83 95       	inc	r24
    1c8e:	50 51       	subi	r21, 0x10	; 16
    1c90:	b9 f7       	brne	.-18     	; 0x1c80 <__utoa_common+0x6>
    1c92:	a0 5d       	subi	r26, 0xD0	; 208
    1c94:	aa 33       	cpi	r26, 0x3A	; 58
    1c96:	08 f0       	brcs	.+2      	; 0x1c9a <__utoa_common+0x20>
    1c98:	a9 5d       	subi	r26, 0xD9	; 217
    1c9a:	a1 93       	st	Z+, r26
    1c9c:	00 97       	sbiw	r24, 0x00	; 0
    1c9e:	79 f7       	brne	.-34     	; 0x1c7e <__utoa_common+0x4>
    1ca0:	b1 11       	cpse	r27, r1
    1ca2:	b1 93       	st	Z+, r27
    1ca4:	11 92       	st	Z+, r1
    1ca6:	cb 01       	movw	r24, r22
    1ca8:	0c 94 56 0e 	jmp	0x1cac	; 0x1cac <strrev>

00001cac <strrev>:
    1cac:	dc 01       	movw	r26, r24
    1cae:	fc 01       	movw	r30, r24
    1cb0:	67 2f       	mov	r22, r23
    1cb2:	71 91       	ld	r23, Z+
    1cb4:	77 23       	and	r23, r23
    1cb6:	e1 f7       	brne	.-8      	; 0x1cb0 <strrev+0x4>
    1cb8:	32 97       	sbiw	r30, 0x02	; 2
    1cba:	04 c0       	rjmp	.+8      	; 0x1cc4 <strrev+0x18>
    1cbc:	7c 91       	ld	r23, X
    1cbe:	6d 93       	st	X+, r22
    1cc0:	70 83       	st	Z, r23
    1cc2:	62 91       	ld	r22, -Z
    1cc4:	ae 17       	cp	r26, r30
    1cc6:	bf 07       	cpc	r27, r31
    1cc8:	c8 f3       	brcs	.-14     	; 0x1cbc <strrev+0x10>
    1cca:	08 95       	ret

00001ccc <_exit>:
    1ccc:	f8 94       	cli

00001cce <__stop_program>:
    1cce:	ff cf       	rjmp	.-2      	; 0x1cce <__stop_program>
